ARM GAS  C:\Users\mame\AppData\Local\Temp\ccQcqcr0.s 			page 1


   1              		.syntax unified
   2              		.cpu cortex-m3
   3              		.fpu softvfp
   4              		.eabi_attribute 20, 1
   5              		.eabi_attribute 21, 1
   6              		.eabi_attribute 23, 3
   7              		.eabi_attribute 24, 1
   8              		.eabi_attribute 25, 1
   9              		.eabi_attribute 26, 1
  10              		.eabi_attribute 30, 6
  11              		.eabi_attribute 34, 1
  12              		.eabi_attribute 18, 4
  13              		.thumb
  14              		.syntax unified
  15              		.file	"BME280.c"
  16              		.text
  17              	.Ltext0:
  18              		.cfi_sections	.debug_frame
  19              		.global	bme280
  20              		.data
  21              		.align	2
  22              		.type	bme280, %object
  23              		.size	bme280, 64
  24              	bme280:
  25 0000 00       		.byte	0
  26 0001 77       		.byte	119
  27 0002 0A       		.byte	10
  28 0003 03       		.byte	3
  29 0004 0000     		.space	2
  30 0006 01       		.byte	1
  31 0007 01       		.byte	1
  32 0008 01       		.byte	1
  33 0009 00       		.space	1
  34 000a 00000000 		.space	36
  34      00000000 
  34      00000000 
  34      00000000 
  34      00000000 
  35 002e 0000     		.space	2
  36 0030 00000000 		.word	0
  37 0034 003C1CC6 		.word	-971228160
  38 0038 003C1CC6 		.word	-971228160
  39 003c 003C1CC6 		.word	-971228160
  40              		.section	.text.BME280_start,"ax",%progbits
  41              		.align	2
  42              		.global	BME280_start
  43              		.thumb
  44              		.thumb_func
  45              		.type	BME280_start, %function
  46              	BME280_start:
  47              	.LFB63:
  48              		.file 1 "BME280.c"
   1:BME280.c      **** /******************************************************************************
   2:BME280.c      **** SparkFunBME280.cpp
   3:BME280.c      **** BME280 Arduino and Teensy Driver
   4:BME280.c      **** Marshall Taylor @ SparkFun Electronics
   5:BME280.c      **** May 20, 2015
ARM GAS  C:\Users\mame\AppData\Local\Temp\ccQcqcr0.s 			page 2


   6:BME280.c      **** https://github.com/sparkfun/BME280_Breakout
   7:BME280.c      **** 
   8:BME280.c      **** Resources:
   9:BME280.c      **** Uses Wire.h for i2c operation
  10:BME280.c      **** Uses SPI.h for SPI operation
  11:BME280.c      **** 
  12:BME280.c      **** Development environment specifics:
  13:BME280.c      **** Arduino IDE 1.6.4
  14:BME280.c      **** Teensy loader 1.23
  15:BME280.c      **** 
  16:BME280.c      **** This code is released under the [MIT License](http://opensource.org/licenses/MIT).
  17:BME280.c      **** Please review the LICENSE.md file included with this example. If you have any questions 
  18:BME280.c      **** or concerns with licensing, please contact techsupport@sparkfun.com.
  19:BME280.c      **** Distributed as-is; no warranty is given.
  20:BME280.c      **** ******************************************************************************/
  21:BME280.c      **** //See SparkFunBME280.h for additional topology notes.
  22:BME280.c      **** 
  23:BME280.c      **** #include "BME280.h"
  24:BME280.c      **** #include <math.h>
  25:BME280.c      **** 
  26:BME280.c      **** 
  27:BME280.c      **** //****************************************************************************//
  28:BME280.c      **** //
  29:BME280.c      **** //  Settings and configuration
  30:BME280.c      **** //
  31:BME280.c      **** //****************************************************************************//
  32:BME280.c      **** 
  33:BME280.c      **** //Construct with these default settings if nothing is specified
  34:BME280.c      **** BME280 bme280 = {
  35:BME280.c      ****     .settings = {
  36:BME280.c      ****         //Select interface mode
  37:BME280.c      ****         .commInterface  = BME280_I2C_MODE,
  38:BME280.c      ****     	//Select address for I2C.  Does nothing for SPI            
  39:BME280.c      ****         .I2CAddress     = 0x77,
  40:BME280.c      ****     	//Select CS pin for SPI.  Does nothing for I2C            
  41:BME280.c      ****         .chipSelectPin  = 10,
  42:BME280.c      ****         .runMode        = 3,
  43:BME280.c      ****         .tempOverSample = 1,
  44:BME280.c      ****         .pressOverSample= 1,
  45:BME280.c      ****         .humidOverSample= 1
  46:BME280.c      ****         },
  47:BME280.c      ****     .calibration = {},
  48:BME280.c      ****     .t_fine = 0,
  49:BME280.c      ****     .temp_C     = -9999,
  50:BME280.c      ****     .press_Pa   = -9999,
  51:BME280.c      ****     .RH         = -9999
  52:BME280.c      **** };
  53:BME280.c      **** 
  54:BME280.c      **** void BME280_start() {
  49              		.loc 1 54 0
  50              		.cfi_startproc
  51              		@ args = 0, pretend = 0, frame = 0
  52              		@ frame_needed = 1, uses_anonymous_args = 0
  53 0000 80B5     		push	{r7, lr}
  54              		.cfi_def_cfa_offset 8
  55              		.cfi_offset 7, -8
  56              		.cfi_offset 14, -4
ARM GAS  C:\Users\mame\AppData\Local\Temp\ccQcqcr0.s 			page 3


  57 0002 00AF     		add	r7, sp, #0
  58              		.cfi_def_cfa_register 7
  55:BME280.c      ****     I2C_Start();
  59              		.loc 1 55 0
  60 0004 FFF7FEFF 		bl	I2C_Start
  56:BME280.c      ****     I2C_Sleep();
  61              		.loc 1 56 0
  62 0008 FFF7FEFF 		bl	I2C_Sleep
  57:BME280.c      **** }
  63              		.loc 1 57 0
  64 000c 00BF     		nop
  65 000e 80BD     		pop	{r7, pc}
  66              		.cfi_endproc
  67              	.LFE63:
  68              		.size	BME280_start, .-BME280_start
  69              		.section	.text.BME280_stop,"ax",%progbits
  70              		.align	2
  71              		.global	BME280_stop
  72              		.thumb
  73              		.thumb_func
  74              		.type	BME280_stop, %function
  75              	BME280_stop:
  76              	.LFB64:
  58:BME280.c      **** 
  59:BME280.c      **** void BME280_stop() {
  77              		.loc 1 59 0
  78              		.cfi_startproc
  79              		@ args = 0, pretend = 0, frame = 0
  80              		@ frame_needed = 1, uses_anonymous_args = 0
  81 0000 80B5     		push	{r7, lr}
  82              		.cfi_def_cfa_offset 8
  83              		.cfi_offset 7, -8
  84              		.cfi_offset 14, -4
  85 0002 00AF     		add	r7, sp, #0
  86              		.cfi_def_cfa_register 7
  60:BME280.c      ****     I2C_Stop();
  87              		.loc 1 60 0
  88 0004 FFF7FEFF 		bl	I2C_Stop
  61:BME280.c      **** }
  89              		.loc 1 61 0
  90 0008 00BF     		nop
  91 000a 80BD     		pop	{r7, pc}
  92              		.cfi_endproc
  93              	.LFE64:
  94              		.size	BME280_stop, .-BME280_stop
  95              		.section	.text.BME280_init,"ax",%progbits
  96              		.align	2
  97              		.global	BME280_init
  98              		.thumb
  99              		.thumb_func
 100              		.type	BME280_init, %function
 101              	BME280_init:
 102              	.LFB65:
  62:BME280.c      **** 
  63:BME280.c      **** //****************************************************************************//
  64:BME280.c      **** //
  65:BME280.c      **** //  Configuration section
ARM GAS  C:\Users\mame\AppData\Local\Temp\ccQcqcr0.s 			page 4


  66:BME280.c      **** //
  67:BME280.c      **** //  This uses the stored SensorSettings to start the IMU
  68:BME280.c      **** //  Use statements such as "mySensor.settings.commInterface = SPI_MODE;" to 
  69:BME280.c      **** //  configure before calling .begin();
  70:BME280.c      **** //
  71:BME280.c      **** //****************************************************************************//
  72:BME280.c      **** uint8_t BME280_init()
  73:BME280.c      **** {
 103              		.loc 1 73 0
 104              		.cfi_startproc
 105              		@ args = 0, pretend = 0, frame = 8
 106              		@ frame_needed = 1, uses_anonymous_args = 0
 107 0000 90B5     		push	{r4, r7, lr}
 108              		.cfi_def_cfa_offset 12
 109              		.cfi_offset 4, -12
 110              		.cfi_offset 7, -8
 111              		.cfi_offset 14, -4
 112 0002 83B0     		sub	sp, sp, #12
 113              		.cfi_def_cfa_offset 24
 114 0004 00AF     		add	r7, sp, #0
 115              		.cfi_def_cfa_register 7
  74:BME280.c      **** 	//Check the settings structure values to determine how to setup the device
  75:BME280.c      **** 	uint8_t data_to_write = 0, device_address;  //Temporary variable
 116              		.loc 1 75 0
 117 0006 0023     		movs	r3, #0
 118 0008 FB71     		strb	r3, [r7, #7]
  76:BME280.c      **** 	I2C_Start();
 119              		.loc 1 76 0
 120 000a FFF7FEFF 		bl	I2C_Start
  77:BME280.c      ****     I2C_Sleep();
 121              		.loc 1 77 0
 122 000e FFF7FEFF 		bl	I2C_Sleep
  78:BME280.c      ****     
  79:BME280.c      **** 	//Reading all compensation data, range 0x88:A1, 0xE1:E7
  80:BME280.c      **** 	bme280.calibration.dig_T1 = ((uint16_t)((BME280_readRegister(BME280_DIG_T1_MSB_REG) << 8) + BME280
 123              		.loc 1 80 0
 124 0012 8920     		movs	r0, #137
 125 0014 FFF7FEFF 		bl	BME280_readRegister
 126 0018 0346     		mov	r3, r0
 127 001a 9BB2     		uxth	r3, r3
 128 001c 1B02     		lsls	r3, r3, #8
 129 001e 9CB2     		uxth	r4, r3
 130 0020 8820     		movs	r0, #136
 131 0022 FFF7FEFF 		bl	BME280_readRegister
 132 0026 0346     		mov	r3, r0
 133 0028 9BB2     		uxth	r3, r3
 134 002a 2344     		add	r3, r3, r4
 135 002c 9AB2     		uxth	r2, r3
 136 002e AE4B     		ldr	r3, .L5
 137 0030 5A81     		strh	r2, [r3, #10]	@ movhi
  81:BME280.c      **** 	bme280.calibration.dig_T2 = ((int16_t)((BME280_readRegister(BME280_DIG_T2_MSB_REG) << 8) + BME280_
 138              		.loc 1 81 0
 139 0032 8B20     		movs	r0, #139
 140 0034 FFF7FEFF 		bl	BME280_readRegister
 141 0038 0346     		mov	r3, r0
 142 003a 9BB2     		uxth	r3, r3
 143 003c 1B02     		lsls	r3, r3, #8
ARM GAS  C:\Users\mame\AppData\Local\Temp\ccQcqcr0.s 			page 5


 144 003e 9CB2     		uxth	r4, r3
 145 0040 8A20     		movs	r0, #138
 146 0042 FFF7FEFF 		bl	BME280_readRegister
 147 0046 0346     		mov	r3, r0
 148 0048 9BB2     		uxth	r3, r3
 149 004a 2344     		add	r3, r3, r4
 150 004c 9BB2     		uxth	r3, r3
 151 004e 1AB2     		sxth	r2, r3
 152 0050 A54B     		ldr	r3, .L5
 153 0052 9A81     		strh	r2, [r3, #12]	@ movhi
  82:BME280.c      **** 	bme280.calibration.dig_T3 = ((int16_t)((BME280_readRegister(BME280_DIG_T3_MSB_REG) << 8) + BME280_
 154              		.loc 1 82 0
 155 0054 8D20     		movs	r0, #141
 156 0056 FFF7FEFF 		bl	BME280_readRegister
 157 005a 0346     		mov	r3, r0
 158 005c 9BB2     		uxth	r3, r3
 159 005e 1B02     		lsls	r3, r3, #8
 160 0060 9CB2     		uxth	r4, r3
 161 0062 8C20     		movs	r0, #140
 162 0064 FFF7FEFF 		bl	BME280_readRegister
 163 0068 0346     		mov	r3, r0
 164 006a 9BB2     		uxth	r3, r3
 165 006c 2344     		add	r3, r3, r4
 166 006e 9BB2     		uxth	r3, r3
 167 0070 1AB2     		sxth	r2, r3
 168 0072 9D4B     		ldr	r3, .L5
 169 0074 DA81     		strh	r2, [r3, #14]	@ movhi
  83:BME280.c      **** 
  84:BME280.c      **** 	bme280.calibration.dig_P1 = ((uint16_t)((BME280_readRegister(BME280_DIG_P1_MSB_REG) << 8) + BME280
 170              		.loc 1 84 0
 171 0076 8F20     		movs	r0, #143
 172 0078 FFF7FEFF 		bl	BME280_readRegister
 173 007c 0346     		mov	r3, r0
 174 007e 9BB2     		uxth	r3, r3
 175 0080 1B02     		lsls	r3, r3, #8
 176 0082 9CB2     		uxth	r4, r3
 177 0084 8E20     		movs	r0, #142
 178 0086 FFF7FEFF 		bl	BME280_readRegister
 179 008a 0346     		mov	r3, r0
 180 008c 9BB2     		uxth	r3, r3
 181 008e 2344     		add	r3, r3, r4
 182 0090 9AB2     		uxth	r2, r3
 183 0092 954B     		ldr	r3, .L5
 184 0094 1A82     		strh	r2, [r3, #16]	@ movhi
  85:BME280.c      **** 	bme280.calibration.dig_P2 = ((int16_t)((BME280_readRegister(BME280_DIG_P2_MSB_REG) << 8) + BME280_
 185              		.loc 1 85 0
 186 0096 9120     		movs	r0, #145
 187 0098 FFF7FEFF 		bl	BME280_readRegister
 188 009c 0346     		mov	r3, r0
 189 009e 9BB2     		uxth	r3, r3
 190 00a0 1B02     		lsls	r3, r3, #8
 191 00a2 9CB2     		uxth	r4, r3
 192 00a4 9020     		movs	r0, #144
 193 00a6 FFF7FEFF 		bl	BME280_readRegister
 194 00aa 0346     		mov	r3, r0
 195 00ac 9BB2     		uxth	r3, r3
 196 00ae 2344     		add	r3, r3, r4
ARM GAS  C:\Users\mame\AppData\Local\Temp\ccQcqcr0.s 			page 6


 197 00b0 9BB2     		uxth	r3, r3
 198 00b2 1AB2     		sxth	r2, r3
 199 00b4 8C4B     		ldr	r3, .L5
 200 00b6 5A82     		strh	r2, [r3, #18]	@ movhi
  86:BME280.c      **** 	bme280.calibration.dig_P3 = ((int16_t)((BME280_readRegister(BME280_DIG_P3_MSB_REG) << 8) + BME280_
 201              		.loc 1 86 0
 202 00b8 9320     		movs	r0, #147
 203 00ba FFF7FEFF 		bl	BME280_readRegister
 204 00be 0346     		mov	r3, r0
 205 00c0 9BB2     		uxth	r3, r3
 206 00c2 1B02     		lsls	r3, r3, #8
 207 00c4 9CB2     		uxth	r4, r3
 208 00c6 9220     		movs	r0, #146
 209 00c8 FFF7FEFF 		bl	BME280_readRegister
 210 00cc 0346     		mov	r3, r0
 211 00ce 9BB2     		uxth	r3, r3
 212 00d0 2344     		add	r3, r3, r4
 213 00d2 9BB2     		uxth	r3, r3
 214 00d4 1AB2     		sxth	r2, r3
 215 00d6 844B     		ldr	r3, .L5
 216 00d8 9A82     		strh	r2, [r3, #20]	@ movhi
  87:BME280.c      **** 	bme280.calibration.dig_P4 = ((int16_t)((BME280_readRegister(BME280_DIG_P4_MSB_REG) << 8) + BME280_
 217              		.loc 1 87 0
 218 00da 9520     		movs	r0, #149
 219 00dc FFF7FEFF 		bl	BME280_readRegister
 220 00e0 0346     		mov	r3, r0
 221 00e2 9BB2     		uxth	r3, r3
 222 00e4 1B02     		lsls	r3, r3, #8
 223 00e6 9CB2     		uxth	r4, r3
 224 00e8 9420     		movs	r0, #148
 225 00ea FFF7FEFF 		bl	BME280_readRegister
 226 00ee 0346     		mov	r3, r0
 227 00f0 9BB2     		uxth	r3, r3
 228 00f2 2344     		add	r3, r3, r4
 229 00f4 9BB2     		uxth	r3, r3
 230 00f6 1AB2     		sxth	r2, r3
 231 00f8 7B4B     		ldr	r3, .L5
 232 00fa DA82     		strh	r2, [r3, #22]	@ movhi
  88:BME280.c      **** 	bme280.calibration.dig_P5 = ((int16_t)((BME280_readRegister(BME280_DIG_P5_MSB_REG) << 8) + BME280_
 233              		.loc 1 88 0
 234 00fc 9720     		movs	r0, #151
 235 00fe FFF7FEFF 		bl	BME280_readRegister
 236 0102 0346     		mov	r3, r0
 237 0104 9BB2     		uxth	r3, r3
 238 0106 1B02     		lsls	r3, r3, #8
 239 0108 9CB2     		uxth	r4, r3
 240 010a 9620     		movs	r0, #150
 241 010c FFF7FEFF 		bl	BME280_readRegister
 242 0110 0346     		mov	r3, r0
 243 0112 9BB2     		uxth	r3, r3
 244 0114 2344     		add	r3, r3, r4
 245 0116 9BB2     		uxth	r3, r3
 246 0118 1AB2     		sxth	r2, r3
 247 011a 734B     		ldr	r3, .L5
 248 011c 1A83     		strh	r2, [r3, #24]	@ movhi
  89:BME280.c      **** 	bme280.calibration.dig_P6 = ((int16_t)((BME280_readRegister(BME280_DIG_P6_MSB_REG) << 8) + BME280_
 249              		.loc 1 89 0
ARM GAS  C:\Users\mame\AppData\Local\Temp\ccQcqcr0.s 			page 7


 250 011e 9920     		movs	r0, #153
 251 0120 FFF7FEFF 		bl	BME280_readRegister
 252 0124 0346     		mov	r3, r0
 253 0126 9BB2     		uxth	r3, r3
 254 0128 1B02     		lsls	r3, r3, #8
 255 012a 9CB2     		uxth	r4, r3
 256 012c 9820     		movs	r0, #152
 257 012e FFF7FEFF 		bl	BME280_readRegister
 258 0132 0346     		mov	r3, r0
 259 0134 9BB2     		uxth	r3, r3
 260 0136 2344     		add	r3, r3, r4
 261 0138 9BB2     		uxth	r3, r3
 262 013a 1AB2     		sxth	r2, r3
 263 013c 6A4B     		ldr	r3, .L5
 264 013e 5A83     		strh	r2, [r3, #26]	@ movhi
  90:BME280.c      **** 	bme280.calibration.dig_P7 = ((int16_t)((BME280_readRegister(BME280_DIG_P7_MSB_REG) << 8) + BME280_
 265              		.loc 1 90 0
 266 0140 9B20     		movs	r0, #155
 267 0142 FFF7FEFF 		bl	BME280_readRegister
 268 0146 0346     		mov	r3, r0
 269 0148 9BB2     		uxth	r3, r3
 270 014a 1B02     		lsls	r3, r3, #8
 271 014c 9CB2     		uxth	r4, r3
 272 014e 9A20     		movs	r0, #154
 273 0150 FFF7FEFF 		bl	BME280_readRegister
 274 0154 0346     		mov	r3, r0
 275 0156 9BB2     		uxth	r3, r3
 276 0158 2344     		add	r3, r3, r4
 277 015a 9BB2     		uxth	r3, r3
 278 015c 1AB2     		sxth	r2, r3
 279 015e 624B     		ldr	r3, .L5
 280 0160 9A83     		strh	r2, [r3, #28]	@ movhi
  91:BME280.c      **** 	bme280.calibration.dig_P8 = ((int16_t)((BME280_readRegister(BME280_DIG_P8_MSB_REG) << 8) + BME280_
 281              		.loc 1 91 0
 282 0162 9D20     		movs	r0, #157
 283 0164 FFF7FEFF 		bl	BME280_readRegister
 284 0168 0346     		mov	r3, r0
 285 016a 9BB2     		uxth	r3, r3
 286 016c 1B02     		lsls	r3, r3, #8
 287 016e 9CB2     		uxth	r4, r3
 288 0170 9C20     		movs	r0, #156
 289 0172 FFF7FEFF 		bl	BME280_readRegister
 290 0176 0346     		mov	r3, r0
 291 0178 9BB2     		uxth	r3, r3
 292 017a 2344     		add	r3, r3, r4
 293 017c 9BB2     		uxth	r3, r3
 294 017e 1AB2     		sxth	r2, r3
 295 0180 594B     		ldr	r3, .L5
 296 0182 DA83     		strh	r2, [r3, #30]	@ movhi
  92:BME280.c      **** 	bme280.calibration.dig_P9 = ((int16_t)((BME280_readRegister(BME280_DIG_P9_MSB_REG) << 8) + BME280_
 297              		.loc 1 92 0
 298 0184 9F20     		movs	r0, #159
 299 0186 FFF7FEFF 		bl	BME280_readRegister
 300 018a 0346     		mov	r3, r0
 301 018c 9BB2     		uxth	r3, r3
 302 018e 1B02     		lsls	r3, r3, #8
 303 0190 9CB2     		uxth	r4, r3
ARM GAS  C:\Users\mame\AppData\Local\Temp\ccQcqcr0.s 			page 8


 304 0192 9E20     		movs	r0, #158
 305 0194 FFF7FEFF 		bl	BME280_readRegister
 306 0198 0346     		mov	r3, r0
 307 019a 9BB2     		uxth	r3, r3
 308 019c 2344     		add	r3, r3, r4
 309 019e 9BB2     		uxth	r3, r3
 310 01a0 1AB2     		sxth	r2, r3
 311 01a2 514B     		ldr	r3, .L5
 312 01a4 1A84     		strh	r2, [r3, #32]	@ movhi
  93:BME280.c      **** 
  94:BME280.c      **** 	bme280.calibration.dig_H1 = ((uint8_t)(BME280_readRegister(BME280_DIG_H1_REG)));
 313              		.loc 1 94 0
 314 01a6 A120     		movs	r0, #161
 315 01a8 FFF7FEFF 		bl	BME280_readRegister
 316 01ac 0346     		mov	r3, r0
 317 01ae 1A46     		mov	r2, r3
 318 01b0 4D4B     		ldr	r3, .L5
 319 01b2 83F82220 		strb	r2, [r3, #34]
  95:BME280.c      **** 	bme280.calibration.dig_H2 = ((int16_t)((BME280_readRegister(BME280_DIG_H2_MSB_REG) << 8) + BME280_
 320              		.loc 1 95 0
 321 01b6 E220     		movs	r0, #226
 322 01b8 FFF7FEFF 		bl	BME280_readRegister
 323 01bc 0346     		mov	r3, r0
 324 01be 9BB2     		uxth	r3, r3
 325 01c0 1B02     		lsls	r3, r3, #8
 326 01c2 9CB2     		uxth	r4, r3
 327 01c4 E120     		movs	r0, #225
 328 01c6 FFF7FEFF 		bl	BME280_readRegister
 329 01ca 0346     		mov	r3, r0
 330 01cc 9BB2     		uxth	r3, r3
 331 01ce 2344     		add	r3, r3, r4
 332 01d0 9BB2     		uxth	r3, r3
 333 01d2 1AB2     		sxth	r2, r3
 334 01d4 444B     		ldr	r3, .L5
 335 01d6 9A84     		strh	r2, [r3, #36]	@ movhi
  96:BME280.c      **** 	bme280.calibration.dig_H3 = ((uint8_t)(BME280_readRegister(BME280_DIG_H3_REG)));
 336              		.loc 1 96 0
 337 01d8 E320     		movs	r0, #227
 338 01da FFF7FEFF 		bl	BME280_readRegister
 339 01de 0346     		mov	r3, r0
 340 01e0 1A46     		mov	r2, r3
 341 01e2 414B     		ldr	r3, .L5
 342 01e4 83F82620 		strb	r2, [r3, #38]
  97:BME280.c      **** 	bme280.calibration.dig_H4 = ((int16_t)((BME280_readRegister(BME280_DIG_H4_MSB_REG) << 4) + (BME280
 343              		.loc 1 97 0
 344 01e8 E420     		movs	r0, #228
 345 01ea FFF7FEFF 		bl	BME280_readRegister
 346 01ee 0346     		mov	r3, r0
 347 01f0 9BB2     		uxth	r3, r3
 348 01f2 1B01     		lsls	r3, r3, #4
 349 01f4 9CB2     		uxth	r4, r3
 350 01f6 E520     		movs	r0, #229
 351 01f8 FFF7FEFF 		bl	BME280_readRegister
 352 01fc 0346     		mov	r3, r0
 353 01fe 9BB2     		uxth	r3, r3
 354 0200 03F00F03 		and	r3, r3, #15
 355 0204 9BB2     		uxth	r3, r3
ARM GAS  C:\Users\mame\AppData\Local\Temp\ccQcqcr0.s 			page 9


 356 0206 2344     		add	r3, r3, r4
 357 0208 9BB2     		uxth	r3, r3
 358 020a 1AB2     		sxth	r2, r3
 359 020c 364B     		ldr	r3, .L5
 360 020e 1A85     		strh	r2, [r3, #40]	@ movhi
  98:BME280.c      **** 	bme280.calibration.dig_H5 = ((int16_t)((BME280_readRegister(BME280_DIG_H5_MSB_REG) << 4) + ((BME28
 361              		.loc 1 98 0
 362 0210 E620     		movs	r0, #230
 363 0212 FFF7FEFF 		bl	BME280_readRegister
 364 0216 0346     		mov	r3, r0
 365 0218 9BB2     		uxth	r3, r3
 366 021a 1B01     		lsls	r3, r3, #4
 367 021c 9CB2     		uxth	r4, r3
 368 021e E520     		movs	r0, #229
 369 0220 FFF7FEFF 		bl	BME280_readRegister
 370 0224 0346     		mov	r3, r0
 371 0226 1B09     		lsrs	r3, r3, #4
 372 0228 DBB2     		uxtb	r3, r3
 373 022a 9BB2     		uxth	r3, r3
 374 022c 03F00F03 		and	r3, r3, #15
 375 0230 9BB2     		uxth	r3, r3
 376 0232 2344     		add	r3, r3, r4
 377 0234 9BB2     		uxth	r3, r3
 378 0236 1AB2     		sxth	r2, r3
 379 0238 2B4B     		ldr	r3, .L5
 380 023a 5A85     		strh	r2, [r3, #42]	@ movhi
  99:BME280.c      **** 	bme280.calibration.dig_H6 = ((uint8_t)BME280_readRegister(BME280_DIG_H6_REG));
 381              		.loc 1 99 0
 382 023c E720     		movs	r0, #231
 383 023e FFF7FEFF 		bl	BME280_readRegister
 384 0242 0346     		mov	r3, r0
 385 0244 1A46     		mov	r2, r3
 386 0246 284B     		ldr	r3, .L5
 387 0248 83F82C20 		strb	r2, [r3, #44]
 100:BME280.c      **** 
 101:BME280.c      **** 	//Set the oversampling control words.
 102:BME280.c      **** 	//config will only be writeable in sleep mode, so first insure that.
 103:BME280.c      **** 	BME280_writeRegister(BME280_CTRL_MEAS_REG, 0x00);
 388              		.loc 1 103 0
 389 024c 0021     		movs	r1, #0
 390 024e F420     		movs	r0, #244
 391 0250 FFF7FEFF 		bl	BME280_writeRegister
 104:BME280.c      **** 	
 105:BME280.c      **** 	//Set the config word
 106:BME280.c      **** 	data_to_write = (bme280.settings.tStandby << 0x5) & 0xE0;
 392              		.loc 1 106 0
 393 0254 244B     		ldr	r3, .L5
 394 0256 1B79     		ldrb	r3, [r3, #4]	@ zero_extendqisi2
 395 0258 5B01     		lsls	r3, r3, #5
 396 025a FB71     		strb	r3, [r7, #7]
 107:BME280.c      **** 	data_to_write |= (bme280.settings.filter << 0x02) & 0x1C;
 397              		.loc 1 107 0
 398 025c 224B     		ldr	r3, .L5
 399 025e 5B79     		ldrb	r3, [r3, #5]	@ zero_extendqisi2
 400 0260 9B00     		lsls	r3, r3, #2
 401 0262 5BB2     		sxtb	r3, r3
 402 0264 03F01C03 		and	r3, r3, #28
ARM GAS  C:\Users\mame\AppData\Local\Temp\ccQcqcr0.s 			page 10


 403 0268 5AB2     		sxtb	r2, r3
 404 026a 97F90730 		ldrsb	r3, [r7, #7]
 405 026e 1343     		orrs	r3, r3, r2
 406 0270 5BB2     		sxtb	r3, r3
 407 0272 FB71     		strb	r3, [r7, #7]
 108:BME280.c      **** 	BME280_writeRegister(BME280_CONFIG_REG, data_to_write);
 408              		.loc 1 108 0
 409 0274 FB79     		ldrb	r3, [r7, #7]	@ zero_extendqisi2
 410 0276 1946     		mov	r1, r3
 411 0278 F520     		movs	r0, #245
 412 027a FFF7FEFF 		bl	BME280_writeRegister
 109:BME280.c      **** 	
 110:BME280.c      **** 	//Set ctrl_hum first, then ctrl_meas to activate ctrl_hum
 111:BME280.c      **** 	data_to_write = bme280.settings.humidOverSample & 0x07; //all other bits can be ignored
 413              		.loc 1 111 0
 414 027e 1A4B     		ldr	r3, .L5
 415 0280 1B7A     		ldrb	r3, [r3, #8]	@ zero_extendqisi2
 416 0282 03F00703 		and	r3, r3, #7
 417 0286 FB71     		strb	r3, [r7, #7]
 112:BME280.c      **** 	BME280_writeRegister(BME280_CTRL_HUMIDITY_REG, data_to_write);
 418              		.loc 1 112 0
 419 0288 FB79     		ldrb	r3, [r7, #7]	@ zero_extendqisi2
 420 028a 1946     		mov	r1, r3
 421 028c F220     		movs	r0, #242
 422 028e FFF7FEFF 		bl	BME280_writeRegister
 113:BME280.c      **** 	
 114:BME280.c      **** 	//set ctrl_meas
 115:BME280.c      **** 	//First, set temp oversampling
 116:BME280.c      **** 	data_to_write = (bme280.settings.tempOverSample << 0x05) & 0xE0;
 423              		.loc 1 116 0
 424 0292 154B     		ldr	r3, .L5
 425 0294 9B79     		ldrb	r3, [r3, #6]	@ zero_extendqisi2
 426 0296 5B01     		lsls	r3, r3, #5
 427 0298 FB71     		strb	r3, [r7, #7]
 117:BME280.c      **** 	//Next, pressure oversampling
 118:BME280.c      **** 	data_to_write |= (bme280.settings.pressOverSample << 0x02) & 0x1C;
 428              		.loc 1 118 0
 429 029a 134B     		ldr	r3, .L5
 430 029c DB79     		ldrb	r3, [r3, #7]	@ zero_extendqisi2
 431 029e 9B00     		lsls	r3, r3, #2
 432 02a0 5BB2     		sxtb	r3, r3
 433 02a2 03F01C03 		and	r3, r3, #28
 434 02a6 5AB2     		sxtb	r2, r3
 435 02a8 97F90730 		ldrsb	r3, [r7, #7]
 436 02ac 1343     		orrs	r3, r3, r2
 437 02ae 5BB2     		sxtb	r3, r3
 438 02b0 FB71     		strb	r3, [r7, #7]
 119:BME280.c      **** 	//Last, set mode
 120:BME280.c      **** 	data_to_write |= (bme280.settings.runMode) & 0x03;
 439              		.loc 1 120 0
 440 02b2 0D4B     		ldr	r3, .L5
 441 02b4 DB78     		ldrb	r3, [r3, #3]	@ zero_extendqisi2
 442 02b6 5BB2     		sxtb	r3, r3
 443 02b8 03F00303 		and	r3, r3, #3
 444 02bc 5AB2     		sxtb	r2, r3
 445 02be 97F90730 		ldrsb	r3, [r7, #7]
 446 02c2 1343     		orrs	r3, r3, r2
ARM GAS  C:\Users\mame\AppData\Local\Temp\ccQcqcr0.s 			page 11


 447 02c4 5BB2     		sxtb	r3, r3
 448 02c6 FB71     		strb	r3, [r7, #7]
 121:BME280.c      **** 	//Load the byte
 122:BME280.c      **** 	BME280_writeRegister(BME280_CTRL_MEAS_REG, data_to_write);
 449              		.loc 1 122 0
 450 02c8 FB79     		ldrb	r3, [r7, #7]	@ zero_extendqisi2
 451 02ca 1946     		mov	r1, r3
 452 02cc F420     		movs	r0, #244
 453 02ce FFF7FEFF 		bl	BME280_writeRegister
 123:BME280.c      **** 	
 124:BME280.c      ****     // dataToWrite is a placeholder for the value we will return
 125:BME280.c      **** 	device_address = BME280_readRegister(0xD0);
 454              		.loc 1 125 0
 455 02d2 D020     		movs	r0, #208
 456 02d4 FFF7FEFF 		bl	BME280_readRegister
 457 02d8 0346     		mov	r3, r0
 458 02da BB71     		strb	r3, [r7, #6]
 126:BME280.c      ****     return device_address;
 459              		.loc 1 126 0
 460 02dc BB79     		ldrb	r3, [r7, #6]	@ zero_extendqisi2
 127:BME280.c      **** }
 461              		.loc 1 127 0
 462 02de 1846     		mov	r0, r3
 463 02e0 0C37     		adds	r7, r7, #12
 464              		.cfi_def_cfa_offset 12
 465 02e2 BD46     		mov	sp, r7
 466              		.cfi_def_cfa_register 13
 467              		@ sp needed
 468 02e4 90BD     		pop	{r4, r7, pc}
 469              	.L6:
 470 02e6 00BF     		.align	2
 471              	.L5:
 472 02e8 00000000 		.word	bme280
 473              		.cfi_endproc
 474              	.LFE65:
 475              		.size	BME280_init, .-BME280_init
 476              		.section	.text.BME280_reset,"ax",%progbits
 477              		.align	2
 478              		.global	BME280_reset
 479              		.thumb
 480              		.thumb_func
 481              		.type	BME280_reset, %function
 482              	BME280_reset:
 483              	.LFB66:
 128:BME280.c      **** 
 129:BME280.c      **** //Strictly resets.  Run BME280_init() afterwards
 130:BME280.c      **** void BME280_reset()
 131:BME280.c      **** {
 484              		.loc 1 131 0
 485              		.cfi_startproc
 486              		@ args = 0, pretend = 0, frame = 0
 487              		@ frame_needed = 1, uses_anonymous_args = 0
 488 0000 80B5     		push	{r7, lr}
 489              		.cfi_def_cfa_offset 8
 490              		.cfi_offset 7, -8
 491              		.cfi_offset 14, -4
 492 0002 00AF     		add	r7, sp, #0
ARM GAS  C:\Users\mame\AppData\Local\Temp\ccQcqcr0.s 			page 12


 493              		.cfi_def_cfa_register 7
 132:BME280.c      **** 	BME280_writeRegister(BME280_RST_REG, 0xB6);
 494              		.loc 1 132 0
 495 0004 B621     		movs	r1, #182
 496 0006 E020     		movs	r0, #224
 497 0008 FFF7FEFF 		bl	BME280_writeRegister
 133:BME280.c      **** 	
 134:BME280.c      **** }
 498              		.loc 1 134 0
 499 000c 00BF     		nop
 500 000e 80BD     		pop	{r7, pc}
 501              		.cfi_endproc
 502              	.LFE66:
 503              		.size	BME280_reset, .-BME280_reset
 504              		.global	__aeabi_ldivmod
 505              		.global	__aeabi_l2f
 506              		.global	__aeabi_fdiv
 507              		.section	.text.BME280_readFloatPressure,"ax",%progbits
 508              		.align	2
 509              		.global	BME280_readFloatPressure
 510              		.thumb
 511              		.thumb_func
 512              		.type	BME280_readFloatPressure, %function
 513              	BME280_readFloatPressure:
 514              	.LFB67:
 135:BME280.c      **** 
 136:BME280.c      **** //****************************************************************************//
 137:BME280.c      **** //
 138:BME280.c      **** //  Pressure Section
 139:BME280.c      **** //
 140:BME280.c      **** //****************************************************************************//
 141:BME280.c      **** float BME280_readFloatPressure( void )
 142:BME280.c      **** {
 515              		.loc 1 142 0
 516              		.cfi_startproc
 517              		@ args = 0, pretend = 0, frame = 136
 518              		@ frame_needed = 1, uses_anonymous_args = 0
 519 0000 2DE9B04F 		push	{r4, r5, r7, r8, r9, r10, fp, lr}
 520              		.cfi_def_cfa_offset 32
 521              		.cfi_offset 4, -32
 522              		.cfi_offset 5, -28
 523              		.cfi_offset 7, -24
 524              		.cfi_offset 8, -20
 525              		.cfi_offset 9, -16
 526              		.cfi_offset 10, -12
 527              		.cfi_offset 11, -8
 528              		.cfi_offset 14, -4
 529 0004 A2B0     		sub	sp, sp, #136
 530              		.cfi_def_cfa_offset 168
 531 0006 00AF     		add	r7, sp, #0
 532              		.cfi_def_cfa_register 7
 143:BME280.c      **** 
 144:BME280.c      **** 	// Returns pressure in Pa as unsigned 32 bit integer in Q24.8 format (24 integer bits and 8 fracti
 145:BME280.c      **** 	// Output value of “24674867” represents 24674867/256 = 96386.2 Pa = 963.862 hPa
 146:BME280.c      **** 	int32_t adc_P = ((uint32_t)BME280_readRegister(BME280_PRESSURE_MSB_REG) << 12) | ((uint32_t)BME280
 533              		.loc 1 146 0
 534 0008 F720     		movs	r0, #247
ARM GAS  C:\Users\mame\AppData\Local\Temp\ccQcqcr0.s 			page 13


 535 000a FFF7FEFF 		bl	BME280_readRegister
 536 000e 0346     		mov	r3, r0
 537 0010 1C03     		lsls	r4, r3, #12
 538 0012 F820     		movs	r0, #248
 539 0014 FFF7FEFF 		bl	BME280_readRegister
 540 0018 0346     		mov	r3, r0
 541 001a 1B01     		lsls	r3, r3, #4
 542 001c 1C43     		orrs	r4, r4, r3
 543 001e F920     		movs	r0, #249
 544 0020 FFF7FEFF 		bl	BME280_readRegister
 545 0024 0346     		mov	r3, r0
 546 0026 1B09     		lsrs	r3, r3, #4
 547 0028 DBB2     		uxtb	r3, r3
 548 002a 03F00F03 		and	r3, r3, #15
 549 002e 2343     		orrs	r3, r3, r4
 550 0030 C7F88430 		str	r3, [r7, #132]
 147:BME280.c      **** 	
 148:BME280.c      **** 	int64_t var1, var2, p_acc;
 149:BME280.c      **** 	var1 = ((int64_t) bme280.t_fine) - 128000;
 551              		.loc 1 149 0
 552 0034 644B     		ldr	r3, .L11
 553 0036 1B6B     		ldr	r3, [r3, #48]
 554 0038 4FEAE374 		asr	r4, r3, #31
 555 003c B3F5FA33 		subs	r3, r3, #128000
 556 0040 44F1FF34 		adc	r4, r4, #-1
 557 0044 C7E91E34 		strd	r3, [r7, #120]
 150:BME280.c      **** 	var2 = var1 * var1 * (int64_t) bme280.calibration.dig_P6;
 558              		.loc 1 150 0
 559 0048 FA6F     		ldr	r2, [r7, #124]
 560 004a BB6F     		ldr	r3, [r7, #120]
 561 004c 03FB02F1 		mul	r1, r3, r2
 562 0050 FA6F     		ldr	r2, [r7, #124]
 563 0052 BB6F     		ldr	r3, [r7, #120]
 564 0054 03FB02F3 		mul	r3, r3, r2
 565 0058 CC18     		adds	r4, r1, r3
 566 005a BA6F     		ldr	r2, [r7, #120]
 567 005c BB6F     		ldr	r3, [r7, #120]
 568 005e A2FB0301 		umull	r0, r1, r2, r3
 569 0062 6318     		adds	r3, r4, r1
 570 0064 1946     		mov	r1, r3
 571 0066 584B     		ldr	r3, .L11
 572 0068 B3F91A30 		ldrsh	r3, [r3, #26]
 573 006c 1BB2     		sxth	r3, r3
 574 006e 4FEAE374 		asr	r4, r3, #31
 575 0072 03FB01F5 		mul	r5, r3, r1
 576 0076 00FB04F2 		mul	r2, r0, r4
 577 007a 2A44     		add	r2, r2, r5
 578 007c A0FB0334 		umull	r3, r4, r0, r3
 579 0080 2244     		add	r2, r2, r4
 580 0082 1446     		mov	r4, r2
 581 0084 C7E91C34 		strd	r3, [r7, #112]
 582 0088 C7E91C34 		strd	r3, [r7, #112]
 151:BME280.c      **** 	var2 = var2 + ((var1 * (int64_t) bme280.calibration.dig_P5)<<17);
 583              		.loc 1 151 0
 584 008c 4E4B     		ldr	r3, .L11
 585 008e B3F91830 		ldrsh	r3, [r3, #24]
 586 0092 1BB2     		sxth	r3, r3
ARM GAS  C:\Users\mame\AppData\Local\Temp\ccQcqcr0.s 			page 14


 587 0094 4FEAE374 		asr	r4, r3, #31
 588 0098 BA6F     		ldr	r2, [r7, #120]
 589 009a 04FB02F1 		mul	r1, r4, r2
 590 009e FA6F     		ldr	r2, [r7, #124]
 591 00a0 03FB02F2 		mul	r2, r3, r2
 592 00a4 1144     		add	r1, r1, r2
 593 00a6 BA6F     		ldr	r2, [r7, #120]
 594 00a8 A2FB0334 		umull	r3, r4, r2, r3
 595 00ac 0A19     		adds	r2, r1, r4
 596 00ae 1446     		mov	r4, r2
 597 00b0 4FEA4449 		lsl	r9, r4, #17
 598 00b4 49EAD339 		orr	r9, r9, r3, lsr #15
 599 00b8 4FEA4348 		lsl	r8, r3, #17
 600 00bc D7E91C34 		ldrd	r3, [r7, #112]
 601 00c0 13EB0803 		adds	r3, r3, r8
 602 00c4 44EB0904 		adc	r4, r4, r9
 603 00c8 C7E91C34 		strd	r3, [r7, #112]
 152:BME280.c      **** 	var2 = var2 + (((int64_t) bme280.calibration.dig_P4)<<35);
 604              		.loc 1 152 0
 605 00cc 3E4B     		ldr	r3, .L11
 606 00ce B3F91630 		ldrsh	r3, [r3, #22]
 607 00d2 1BB2     		sxth	r3, r3
 608 00d4 4FEAE374 		asr	r4, r3, #31
 609 00d8 DB00     		lsls	r3, r3, #3
 610 00da FB60     		str	r3, [r7, #12]
 611 00dc 0023     		movs	r3, #0
 612 00de BB60     		str	r3, [r7, #8]
 613 00e0 D7E91C34 		ldrd	r3, [r7, #112]
 614 00e4 D7E90212 		ldrd	r1, [r7, #8]
 615 00e8 C918     		adds	r1, r1, r3
 616 00ea 42EB0402 		adc	r2, r2, r4
 617 00ee 0B46     		mov	r3, r1
 618 00f0 1446     		mov	r4, r2
 619 00f2 C7E91C34 		strd	r3, [r7, #112]
 153:BME280.c      **** 	var1 = ((var1 * var1 * (int64_t) bme280.calibration.dig_P3)>>8) + ((var1 * (int64_t) bme280.calibr
 620              		.loc 1 153 0
 621 00f6 FA6F     		ldr	r2, [r7, #124]
 622 00f8 BB6F     		ldr	r3, [r7, #120]
 623 00fa 03FB02F1 		mul	r1, r3, r2
 624 00fe FA6F     		ldr	r2, [r7, #124]
 625 0100 BB6F     		ldr	r3, [r7, #120]
 626 0102 03FB02F3 		mul	r3, r3, r2
 627 0106 CC18     		adds	r4, r1, r3
 628 0108 BA6F     		ldr	r2, [r7, #120]
 629 010a BB6F     		ldr	r3, [r7, #120]
 630 010c A2FB0301 		umull	r0, r1, r2, r3
 631 0110 6318     		adds	r3, r4, r1
 632 0112 1946     		mov	r1, r3
 633 0114 2C4B     		ldr	r3, .L11
 634 0116 B3F91430 		ldrsh	r3, [r3, #20]
 635 011a 1BB2     		sxth	r3, r3
 636 011c 4FEAE374 		asr	r4, r3, #31
 637 0120 03FB01F5 		mul	r5, r3, r1
 638 0124 00FB04F2 		mul	r2, r0, r4
 639 0128 2A44     		add	r2, r2, r5
 640 012a A0FB0334 		umull	r3, r4, r0, r3
 641 012e 2244     		add	r2, r2, r4
ARM GAS  C:\Users\mame\AppData\Local\Temp\ccQcqcr0.s 			page 15


 642 0130 1446     		mov	r4, r2
 643 0132 1A0A     		lsrs	r2, r3, #8
 644 0134 3A66     		str	r2, [r7, #96]
 645 0136 3A6E     		ldr	r2, [r7, #96]
 646 0138 42EA0462 		orr	r2, r2, r4, lsl #24
 647 013c 3A66     		str	r2, [r7, #96]
 648 013e 2312     		asrs	r3, r4, #8
 649 0140 7B66     		str	r3, [r7, #100]
 650 0142 214B     		ldr	r3, .L11
 651 0144 B3F91230 		ldrsh	r3, [r3, #18]
 652 0148 1BB2     		sxth	r3, r3
 653 014a 4FEAE374 		asr	r4, r3, #31
 654 014e BA6F     		ldr	r2, [r7, #120]
 655 0150 04FB02F1 		mul	r1, r4, r2
 656 0154 FA6F     		ldr	r2, [r7, #124]
 657 0156 03FB02F2 		mul	r2, r3, r2
 658 015a 1144     		add	r1, r1, r2
 659 015c BA6F     		ldr	r2, [r7, #120]
 660 015e A2FB0334 		umull	r3, r4, r2, r3
 661 0162 0A19     		adds	r2, r1, r4
 662 0164 1446     		mov	r4, r2
 663 0166 4FEA043B 		lsl	fp, r4, #12
 664 016a 4BEA135B 		orr	fp, fp, r3, lsr #20
 665 016e 4FEA033A 		lsl	r10, r3, #12
 666 0172 D7E91834 		ldrd	r3, [r7, #96]
 667 0176 13EB0A03 		adds	r3, r3, r10
 668 017a 44EB0B04 		adc	r4, r4, fp
 669 017e C7E91E34 		strd	r3, [r7, #120]
 154:BME280.c      **** 	var1 = (((((int64_t)1)<<47)+var1))*((int64_t) bme280.calibration.dig_P1)>>33;
 670              		.loc 1 154 0
 671 0182 D7E91E34 		ldrd	r3, [r7, #120]
 672 0186 191C     		adds	r1, r3, #0
 673 0188 44F50042 		adc	r2, r4, #32768
 674 018c 0E4B     		ldr	r3, .L11
 675 018e 1B8A     		ldrh	r3, [r3, #16]
 676 0190 9BB2     		uxth	r3, r3
 677 0192 4FF00004 		mov	r4, #0
 678 0196 03FB02F5 		mul	r5, r3, r2
 679 019a 01FB04F0 		mul	r0, r1, r4
 680 019e 2844     		add	r0, r0, r5
 681 01a0 A1FB0334 		umull	r3, r4, r1, r3
 682 01a4 0219     		adds	r2, r0, r4
 683 01a6 1446     		mov	r4, r2
 684 01a8 6210     		asrs	r2, r4, #1
 685 01aa 3A60     		str	r2, [r7]
 686 01ac E317     		asrs	r3, r4, #31
 687 01ae 7B60     		str	r3, [r7, #4]
 688 01b0 D7E90034 		ldrd	r3, [r7]
 689 01b4 C7E91E34 		strd	r3, [r7, #120]
 155:BME280.c      **** 	if (var1 == 0)
 690              		.loc 1 155 0
 691 01b8 D7E91E34 		ldrd	r3, [r7, #120]
 692 01bc 2343     		orrs	r3, r3, r4
 693 01be 05D1     		bne	.L9
 156:BME280.c      **** 	{
 157:BME280.c      **** 		return 0; // avoid exception caused by division by zero
 694              		.loc 1 157 0
ARM GAS  C:\Users\mame\AppData\Local\Temp\ccQcqcr0.s 			page 16


 695 01c0 4FF00003 		mov	r3, #0
 696 01c4 F3E0     		b	.L10
 697              	.L12:
 698 01c6 00BF     		.align	2
 699              	.L11:
 700 01c8 00000000 		.word	bme280
 701              	.L9:
 158:BME280.c      **** 	}
 159:BME280.c      **** 	p_acc = 1048576 - adc_P;
 702              		.loc 1 159 0
 703 01cc D7F88430 		ldr	r3, [r7, #132]
 704 01d0 C3F58013 		rsb	r3, r3, #1048576
 705 01d4 4FEAE374 		asr	r4, r3, #31
 706 01d8 C7E91A34 		strd	r3, [r7, #104]
 160:BME280.c      **** 	p_acc = (((p_acc<<31) - var2)*3125)/var1;
 707              		.loc 1 160 0
 708 01dc D7E91A34 		ldrd	r3, [r7, #104]
 709 01e0 E207     		lsls	r2, r4, #31
 710 01e2 FA65     		str	r2, [r7, #92]
 711 01e4 FA6D     		ldr	r2, [r7, #92]
 712 01e6 42EA5302 		orr	r2, r2, r3, lsr #1
 713 01ea FA65     		str	r2, [r7, #92]
 714 01ec DB07     		lsls	r3, r3, #31
 715 01ee BB65     		str	r3, [r7, #88]
 716 01f0 D7E91C34 		ldrd	r3, [r7, #112]
 717 01f4 D7E91612 		ldrd	r1, [r7, #88]
 718 01f8 C91A     		subs	r1, r1, r3
 719 01fa 62EB0402 		sbc	r2, r2, r4
 720 01fe 0B46     		mov	r3, r1
 721 0200 1446     		mov	r4, r2
 722 0202 DB18     		adds	r3, r3, r3
 723 0204 44EB0404 		adc	r4, r4, r4
 724 0208 5B18     		adds	r3, r3, r1
 725 020a 44EB0204 		adc	r4, r4, r2
 726 020e A001     		lsls	r0, r4, #6
 727 0210 7863     		str	r0, [r7, #52]
 728 0212 786B     		ldr	r0, [r7, #52]
 729 0214 40EA9360 		orr	r0, r0, r3, lsr #26
 730 0218 7863     		str	r0, [r7, #52]
 731 021a 9801     		lsls	r0, r3, #6
 732 021c 3863     		str	r0, [r7, #48]
 733 021e D7E90C89 		ldrd	r8, [r7, #48]
 734 0222 18EB0308 		adds	r8, r8, r3
 735 0226 49EB0409 		adc	r9, r9, r4
 736 022a 4346     		mov	r3, r8
 737 022c 4C46     		mov	r4, r9
 738 022e A000     		lsls	r0, r4, #2
 739 0230 F862     		str	r0, [r7, #44]
 740 0232 F86A     		ldr	r0, [r7, #44]
 741 0234 40EA9370 		orr	r0, r0, r3, lsr #30
 742 0238 F862     		str	r0, [r7, #44]
 743 023a 9B00     		lsls	r3, r3, #2
 744 023c BB62     		str	r3, [r7, #40]
 745 023e D7E90A34 		ldrd	r3, [r7, #40]
 746 0242 5B18     		adds	r3, r3, r1
 747 0244 44EB0204 		adc	r4, r4, r2
 748 0248 A000     		lsls	r0, r4, #2
ARM GAS  C:\Users\mame\AppData\Local\Temp\ccQcqcr0.s 			page 17


 749 024a 7862     		str	r0, [r7, #36]
 750 024c 786A     		ldr	r0, [r7, #36]
 751 024e 40EA9370 		orr	r0, r0, r3, lsr #30
 752 0252 7862     		str	r0, [r7, #36]
 753 0254 9B00     		lsls	r3, r3, #2
 754 0256 3B62     		str	r3, [r7, #32]
 755 0258 D7E90834 		ldrd	r3, [r7, #32]
 756 025c 13EB0108 		adds	r8, r3, r1
 757 0260 44EB0209 		adc	r9, r4, r2
 758 0264 4046     		mov	r0, r8
 759 0266 4946     		mov	r1, r9
 760 0268 D7E91E23 		ldrd	r2, [r7, #120]
 761 026c FFF7FEFF 		bl	__aeabi_ldivmod
 762 0270 0346     		mov	r3, r0
 763 0272 0C46     		mov	r4, r1
 764 0274 C7E91A34 		strd	r3, [r7, #104]
 161:BME280.c      **** 	var1 = (((int64_t) bme280.calibration.dig_P9) * (p_acc>>13) * (p_acc>>13)) >> 25;
 765              		.loc 1 161 0
 766 0278 4F4B     		ldr	r3, .L13
 767 027a B3F92030 		ldrsh	r3, [r3, #32]
 768 027e 18B2     		sxth	r0, r3
 769 0280 4FEAE071 		asr	r1, r0, #31
 770 0284 D7E91A34 		ldrd	r3, [r7, #104]
 771 0288 5A0B     		lsrs	r2, r3, #13
 772 028a 3A65     		str	r2, [r7, #80]
 773 028c 3A6D     		ldr	r2, [r7, #80]
 774 028e 42EAC442 		orr	r2, r2, r4, lsl #19
 775 0292 3A65     		str	r2, [r7, #80]
 776 0294 6313     		asrs	r3, r4, #13
 777 0296 7B65     		str	r3, [r7, #84]
 778 0298 D7E91445 		ldrd	r4, [r7, #80]
 779 029c 2346     		mov	r3, r4
 780 029e 03FB01F2 		mul	r2, r3, r1
 781 02a2 2B46     		mov	r3, r5
 782 02a4 00FB03F3 		mul	r3, r0, r3
 783 02a8 1A44     		add	r2, r2, r3
 784 02aa 2346     		mov	r3, r4
 785 02ac A0FB0334 		umull	r3, r4, r0, r3
 786 02b0 2244     		add	r2, r2, r4
 787 02b2 1446     		mov	r4, r2
 788 02b4 D7E91A12 		ldrd	r1, [r7, #104]
 789 02b8 480B     		lsrs	r0, r1, #13
 790 02ba B864     		str	r0, [r7, #72]
 791 02bc B86C     		ldr	r0, [r7, #72]
 792 02be 40EAC240 		orr	r0, r0, r2, lsl #19
 793 02c2 B864     		str	r0, [r7, #72]
 794 02c4 5213     		asrs	r2, r2, #13
 795 02c6 FA64     		str	r2, [r7, #76]
 796 02c8 D7E91289 		ldrd	r8, [r7, #72]
 797 02cc 4246     		mov	r2, r8
 798 02ce 02FB04F1 		mul	r1, r2, r4
 799 02d2 4A46     		mov	r2, r9
 800 02d4 03FB02F2 		mul	r2, r3, r2
 801 02d8 0A44     		add	r2, r2, r1
 802 02da 4146     		mov	r1, r8
 803 02dc A3FB0134 		umull	r3, r4, r3, r1
 804 02e0 2244     		add	r2, r2, r4
ARM GAS  C:\Users\mame\AppData\Local\Temp\ccQcqcr0.s 			page 18


 805 02e2 1446     		mov	r4, r2
 806 02e4 5A0E     		lsrs	r2, r3, #25
 807 02e6 BA61     		str	r2, [r7, #24]
 808 02e8 BA69     		ldr	r2, [r7, #24]
 809 02ea 42EAC412 		orr	r2, r2, r4, lsl #7
 810 02ee BA61     		str	r2, [r7, #24]
 811 02f0 6316     		asrs	r3, r4, #25
 812 02f2 FB61     		str	r3, [r7, #28]
 813 02f4 D7E90634 		ldrd	r3, [r7, #24]
 814 02f8 C7E91E34 		strd	r3, [r7, #120]
 162:BME280.c      **** 	var2 = (((int64_t) bme280.calibration.dig_P8) * p_acc) >> 19;
 815              		.loc 1 162 0
 816 02fc 2E4B     		ldr	r3, .L13
 817 02fe B3F91E30 		ldrsh	r3, [r3, #30]
 818 0302 1BB2     		sxth	r3, r3
 819 0304 4FEAE374 		asr	r4, r3, #31
 820 0308 BA6E     		ldr	r2, [r7, #104]
 821 030a 04FB02F1 		mul	r1, r4, r2
 822 030e FA6E     		ldr	r2, [r7, #108]
 823 0310 03FB02F2 		mul	r2, r3, r2
 824 0314 0A44     		add	r2, r2, r1
 825 0316 B96E     		ldr	r1, [r7, #104]
 826 0318 A1FB0334 		umull	r3, r4, r1, r3
 827 031c 2244     		add	r2, r2, r4
 828 031e 1446     		mov	r4, r2
 829 0320 DA0C     		lsrs	r2, r3, #19
 830 0322 3A61     		str	r2, [r7, #16]
 831 0324 3A69     		ldr	r2, [r7, #16]
 832 0326 42EA4432 		orr	r2, r2, r4, lsl #13
 833 032a 3A61     		str	r2, [r7, #16]
 834 032c E314     		asrs	r3, r4, #19
 835 032e 7B61     		str	r3, [r7, #20]
 836 0330 D7E90434 		ldrd	r3, [r7, #16]
 837 0334 C7E91C34 		strd	r3, [r7, #112]
 163:BME280.c      **** 	p_acc = ((p_acc + var1 + var2) >> 8) + (((int64_t) bme280.calibration.dig_P7)<<4);
 838              		.loc 1 163 0
 839 0338 D7E91A12 		ldrd	r1, [r7, #104]
 840 033c D7E91E34 		ldrd	r3, [r7, #120]
 841 0340 C918     		adds	r1, r1, r3
 842 0342 42EB0402 		adc	r2, r2, r4
 843 0346 D7E91C34 		ldrd	r3, [r7, #112]
 844 034a 5B18     		adds	r3, r3, r1
 845 034c 44EB0204 		adc	r4, r4, r2
 846 0350 1A0A     		lsrs	r2, r3, #8
 847 0352 3A64     		str	r2, [r7, #64]
 848 0354 3A6C     		ldr	r2, [r7, #64]
 849 0356 42EA0462 		orr	r2, r2, r4, lsl #24
 850 035a 3A64     		str	r2, [r7, #64]
 851 035c 2312     		asrs	r3, r4, #8
 852 035e 7B64     		str	r3, [r7, #68]
 853 0360 154B     		ldr	r3, .L13
 854 0362 B3F91C30 		ldrsh	r3, [r3, #28]
 855 0366 1BB2     		sxth	r3, r3
 856 0368 4FEAE374 		asr	r4, r3, #31
 857 036c 2201     		lsls	r2, r4, #4
 858 036e FA63     		str	r2, [r7, #60]
 859 0370 FA6B     		ldr	r2, [r7, #60]
ARM GAS  C:\Users\mame\AppData\Local\Temp\ccQcqcr0.s 			page 19


 860 0372 42EA1372 		orr	r2, r2, r3, lsr #28
 861 0376 FA63     		str	r2, [r7, #60]
 862 0378 1B01     		lsls	r3, r3, #4
 863 037a BB63     		str	r3, [r7, #56]
 864 037c D7E91034 		ldrd	r3, [r7, #64]
 865 0380 D7E90E12 		ldrd	r1, [r7, #56]
 866 0384 5B18     		adds	r3, r3, r1
 867 0386 44EB0204 		adc	r4, r4, r2
 868 038a C7E91A34 		strd	r3, [r7, #104]
 164:BME280.c      **** 	
 165:BME280.c      ****     bme280.press_Pa = (float)p_acc / 256.0;
 869              		.loc 1 165 0
 870 038e D7E91A01 		ldrd	r0, [r7, #104]
 871 0392 FFF7FEFF 		bl	__aeabi_l2f
 872 0396 0346     		mov	r3, r0
 873 0398 4FF08741 		mov	r1, #1132462080
 874 039c 1846     		mov	r0, r3
 875 039e FFF7FEFF 		bl	__aeabi_fdiv
 876 03a2 0346     		mov	r3, r0
 877 03a4 1A46     		mov	r2, r3
 878 03a6 044B     		ldr	r3, .L13
 879 03a8 9A63     		str	r2, [r3, #56]	@ float
 166:BME280.c      ****     return bme280.press_Pa;
 880              		.loc 1 166 0
 881 03aa 034B     		ldr	r3, .L13
 882 03ac 9B6B     		ldr	r3, [r3, #56]	@ float
 883              	.L10:
 167:BME280.c      **** 	
 168:BME280.c      **** }
 884              		.loc 1 168 0
 885 03ae 1846     		mov	r0, r3
 886 03b0 8837     		adds	r7, r7, #136
 887              		.cfi_def_cfa_offset 32
 888 03b2 BD46     		mov	sp, r7
 889              		.cfi_def_cfa_register 13
 890              		@ sp needed
 891 03b4 BDE8B08F 		pop	{r4, r5, r7, r8, r9, r10, fp, pc}
 892              	.L14:
 893              		.align	2
 894              	.L13:
 895 03b8 00000000 		.word	bme280
 896              		.cfi_endproc
 897              	.LFE67:
 898              		.size	BME280_readFloatPressure, .-BME280_readFloatPressure
 899              		.global	__aeabi_f2d
 900              		.global	__aeabi_dsub
 901              		.global	__aeabi_dmul
 902              		.global	__aeabi_d2f
 903              		.section	.text.BME280_readFloatAltitudeMeters,"ax",%progbits
 904              		.align	2
 905              		.global	BME280_readFloatAltitudeMeters
 906              		.thumb
 907              		.thumb_func
 908              		.type	BME280_readFloatAltitudeMeters, %function
 909              	BME280_readFloatAltitudeMeters:
 910              	.LFB68:
 169:BME280.c      **** 
ARM GAS  C:\Users\mame\AppData\Local\Temp\ccQcqcr0.s 			page 20


 170:BME280.c      **** float BME280_readFloatAltitudeMeters( void )
 171:BME280.c      **** {
 911              		.loc 1 171 0
 912              		.cfi_startproc
 913              		@ args = 0, pretend = 0, frame = 8
 914              		@ frame_needed = 1, uses_anonymous_args = 0
 915 0000 90B5     		push	{r4, r7, lr}
 916              		.cfi_def_cfa_offset 12
 917              		.cfi_offset 4, -12
 918              		.cfi_offset 7, -8
 919              		.cfi_offset 14, -4
 920 0002 83B0     		sub	sp, sp, #12
 921              		.cfi_def_cfa_offset 24
 922 0004 00AF     		add	r7, sp, #0
 923              		.cfi_def_cfa_register 7
 172:BME280.c      **** 	float heightOutput = 0;
 924              		.loc 1 172 0
 925 0006 4FF00003 		mov	r3, #0
 926 000a 7B60     		str	r3, [r7, #4]	@ float
 173:BME280.c      **** 	
 174:BME280.c      **** 	heightOutput = ((float)-45846.2)*(pow(((float) BME280_readFloatPressure()/(float) P_SURFACE), 0.19
 927              		.loc 1 174 0
 928 000c FFF7FEFF 		bl	BME280_readFloatPressure
 929 0010 0346     		mov	r3, r0
 930 0012 1949     		ldr	r1, .L17+16
 931 0014 1846     		mov	r0, r3
 932 0016 FFF7FEFF 		bl	__aeabi_fdiv
 933 001a 0346     		mov	r3, r0
 934 001c 1846     		mov	r0, r3
 935 001e FFF7FEFF 		bl	__aeabi_f2d
 936 0022 11A3     		adr	r3, .L17
 937 0024 D3E90023 		ldrd	r2, [r3]
 938 0028 FFF7FEFF 		bl	pow
 939 002c 4FF00002 		mov	r2, #0
 940 0030 124B     		ldr	r3, .L17+20
 941 0032 FFF7FEFF 		bl	__aeabi_dsub
 942 0036 0346     		mov	r3, r0
 943 0038 0C46     		mov	r4, r1
 944 003a 1846     		mov	r0, r3
 945 003c 2146     		mov	r1, r4
 946 003e 0CA3     		adr	r3, .L17+8
 947 0040 D3E90023 		ldrd	r2, [r3]
 948 0044 FFF7FEFF 		bl	__aeabi_dmul
 949 0048 0346     		mov	r3, r0
 950 004a 0C46     		mov	r4, r1
 951 004c 1846     		mov	r0, r3
 952 004e 2146     		mov	r1, r4
 953 0050 FFF7FEFF 		bl	__aeabi_d2f
 954 0054 0346     		mov	r3, r0
 955 0056 7B60     		str	r3, [r7, #4]	@ float
 175:BME280.c      **** 	return heightOutput;
 956              		.loc 1 175 0
 957 0058 7B68     		ldr	r3, [r7, #4]	@ float
 176:BME280.c      **** 	
 177:BME280.c      **** }
 958              		.loc 1 177 0
 959 005a 1846     		mov	r0, r3
ARM GAS  C:\Users\mame\AppData\Local\Temp\ccQcqcr0.s 			page 21


 960 005c 0C37     		adds	r7, r7, #12
 961              		.cfi_def_cfa_offset 12
 962 005e BD46     		mov	sp, r7
 963              		.cfi_def_cfa_register 13
 964              		@ sp needed
 965 0060 90BD     		pop	{r4, r7, pc}
 966              	.L18:
 967 0062 00BFAFF3 		.align	3
 967      0080
 968              	.L17:
 969 0068 C5C551B9 		.word	-1185823291
 970 006c 895AC83F 		.word	1070094985
 971 0070 00000060 		.word	1610612736
 972 0074 C662E6C0 		.word	-1058643258
 973 0078 80E6C547 		.word	1204151936
 974 007c 0000F03F 		.word	1072693248
 975              		.cfi_endproc
 976              	.LFE68:
 977              		.size	BME280_readFloatAltitudeMeters, .-BME280_readFloatAltitudeMeters
 978              		.section	.text.BME280_readFloatAltitudeFeet,"ax",%progbits
 979              		.align	2
 980              		.global	BME280_readFloatAltitudeFeet
 981              		.thumb
 982              		.thumb_func
 983              		.type	BME280_readFloatAltitudeFeet, %function
 984              	BME280_readFloatAltitudeFeet:
 985              	.LFB69:
 178:BME280.c      **** 
 179:BME280.c      **** float BME280_readFloatAltitudeFeet( void )
 180:BME280.c      **** {
 986              		.loc 1 180 0
 987              		.cfi_startproc
 988              		@ args = 0, pretend = 0, frame = 8
 989              		@ frame_needed = 1, uses_anonymous_args = 0
 990 0000 90B5     		push	{r4, r7, lr}
 991              		.cfi_def_cfa_offset 12
 992              		.cfi_offset 4, -12
 993              		.cfi_offset 7, -8
 994              		.cfi_offset 14, -4
 995 0002 83B0     		sub	sp, sp, #12
 996              		.cfi_def_cfa_offset 24
 997 0004 00AF     		add	r7, sp, #0
 998              		.cfi_def_cfa_register 7
 181:BME280.c      **** 	float heightOutput = 0;
 999              		.loc 1 181 0
 1000 0006 4FF00003 		mov	r3, #0
 1001 000a 7B60     		str	r3, [r7, #4]	@ float
 182:BME280.c      **** 	
 183:BME280.c      **** 	heightOutput = BME280_readFloatAltitudeMeters() * 3.28084;
 1002              		.loc 1 183 0
 1003 000c FFF7FEFF 		bl	BME280_readFloatAltitudeMeters
 1004 0010 0346     		mov	r3, r0
 1005 0012 1846     		mov	r0, r3
 1006 0014 FFF7FEFF 		bl	__aeabi_f2d
 1007 0018 09A3     		adr	r3, .L21
 1008 001a D3E90023 		ldrd	r2, [r3]
 1009 001e FFF7FEFF 		bl	__aeabi_dmul
ARM GAS  C:\Users\mame\AppData\Local\Temp\ccQcqcr0.s 			page 22


 1010 0022 0346     		mov	r3, r0
 1011 0024 0C46     		mov	r4, r1
 1012 0026 1846     		mov	r0, r3
 1013 0028 2146     		mov	r1, r4
 1014 002a FFF7FEFF 		bl	__aeabi_d2f
 1015 002e 0346     		mov	r3, r0
 1016 0030 7B60     		str	r3, [r7, #4]	@ float
 184:BME280.c      **** 	return heightOutput;
 1017              		.loc 1 184 0
 1018 0032 7B68     		ldr	r3, [r7, #4]	@ float
 185:BME280.c      **** 	
 186:BME280.c      **** }
 1019              		.loc 1 186 0
 1020 0034 1846     		mov	r0, r3
 1021 0036 0C37     		adds	r7, r7, #12
 1022              		.cfi_def_cfa_offset 12
 1023 0038 BD46     		mov	sp, r7
 1024              		.cfi_def_cfa_register 13
 1025              		@ sp needed
 1026 003a 90BD     		pop	{r4, r7, pc}
 1027              	.L22:
 1028 003c AFF30080 		.align	3
 1029              	.L21:
 1030 0040 E544BB0A 		.word	180045029
 1031 0044 293F0A40 		.word	1074413353
 1032              		.cfi_endproc
 1033              	.LFE69:
 1034              		.size	BME280_readFloatAltitudeFeet, .-BME280_readFloatAltitudeFeet
 1035              		.global	__aeabi_i2f
 1036              		.section	.text.BME280_readFloatHumidity,"ax",%progbits
 1037              		.align	2
 1038              		.global	BME280_readFloatHumidity
 1039              		.thumb
 1040              		.thumb_func
 1041              		.type	BME280_readFloatHumidity, %function
 1042              	BME280_readFloatHumidity:
 1043              	.LFB70:
 187:BME280.c      **** 
 188:BME280.c      **** //****************************************************************************//
 189:BME280.c      **** //
 190:BME280.c      **** //  Humidity Section
 191:BME280.c      **** //
 192:BME280.c      **** //****************************************************************************//
 193:BME280.c      **** float BME280_readFloatHumidity( void )
 194:BME280.c      **** {
 1044              		.loc 1 194 0
 1045              		.cfi_startproc
 1046              		@ args = 0, pretend = 0, frame = 8
 1047              		@ frame_needed = 1, uses_anonymous_args = 0
 1048 0000 90B5     		push	{r4, r7, lr}
 1049              		.cfi_def_cfa_offset 12
 1050              		.cfi_offset 4, -12
 1051              		.cfi_offset 7, -8
 1052              		.cfi_offset 14, -4
 1053 0002 83B0     		sub	sp, sp, #12
 1054              		.cfi_def_cfa_offset 24
 1055 0004 00AF     		add	r7, sp, #0
ARM GAS  C:\Users\mame\AppData\Local\Temp\ccQcqcr0.s 			page 23


 1056              		.cfi_def_cfa_register 7
 195:BME280.c      **** 	
 196:BME280.c      **** 	// Returns humidity in %RH as unsigned 32 bit integer in Q22. 10 format (22 integer and 10 fractio
 197:BME280.c      **** 	// Output value of “47445” represents 47445/1024 = 46. 333 %RH
 198:BME280.c      **** 	int32_t adc_H = ((uint32_t) BME280_readRegister(BME280_HUMIDITY_MSB_REG) << 8) | ((uint32_t) BME28
 1057              		.loc 1 198 0
 1058 0006 FD20     		movs	r0, #253
 1059 0008 FFF7FEFF 		bl	BME280_readRegister
 1060 000c 0346     		mov	r3, r0
 1061 000e 1C02     		lsls	r4, r3, #8
 1062 0010 FE20     		movs	r0, #254
 1063 0012 FFF7FEFF 		bl	BME280_readRegister
 1064 0016 0346     		mov	r3, r0
 1065 0018 2343     		orrs	r3, r3, r4
 1066 001a 7B60     		str	r3, [r7, #4]
 199:BME280.c      **** 	
 200:BME280.c      **** 	int32_t var1;
 201:BME280.c      **** 	var1 = (bme280.t_fine - ((int32_t)76800));
 1067              		.loc 1 201 0
 1068 001c 344B     		ldr	r3, .L25
 1069 001e 1B6B     		ldr	r3, [r3, #48]
 1070 0020 A3F59633 		sub	r3, r3, #76800
 1071 0024 3B60     		str	r3, [r7]
 202:BME280.c      **** 	var1 = (((((adc_H << 14) - (((int32_t)bme280.calibration.dig_H4) << 20) - (((int32_t)bme280.calibr
 1072              		.loc 1 202 0
 1073 0026 7B68     		ldr	r3, [r7, #4]
 1074 0028 9A03     		lsls	r2, r3, #14
 1075 002a 314B     		ldr	r3, .L25
 1076 002c B3F92830 		ldrsh	r3, [r3, #40]
 1077 0030 1B05     		lsls	r3, r3, #20
 1078 0032 D21A     		subs	r2, r2, r3
 1079 0034 2E4B     		ldr	r3, .L25
 1080 0036 B3F92A30 		ldrsh	r3, [r3, #42]
 1081 003a 1946     		mov	r1, r3
 1082 003c 3B68     		ldr	r3, [r7]
 1083 003e 03FB01F3 		mul	r3, r3, r1
 1084 0042 D31A     		subs	r3, r2, r3
 1085 0044 03F58043 		add	r3, r3, #16384
 203:BME280.c      **** 	((int32_t)16384)) >> 15) * (((((((var1 * ((int32_t)bme280.calibration.dig_H6)) >> 10) * (((var1 * 
 1086              		.loc 1 203 0
 1087 0048 DB13     		asrs	r3, r3, #15
 1088 004a 294A     		ldr	r2, .L25
 1089 004c 92F82C20 		ldrb	r2, [r2, #44]	@ zero_extendqisi2
 1090 0050 1146     		mov	r1, r2
 1091 0052 3A68     		ldr	r2, [r7]
 1092 0054 02FB01F2 		mul	r2, r2, r1
 1093 0058 9212     		asrs	r2, r2, #10
 1094 005a 2549     		ldr	r1, .L25
 1095 005c 91F82610 		ldrb	r1, [r1, #38]	@ zero_extendqisi2
 1096 0060 0846     		mov	r0, r1
 1097 0062 3968     		ldr	r1, [r7]
 1098 0064 01FB00F1 		mul	r1, r1, r0
 1099 0068 C912     		asrs	r1, r1, #11
 1100 006a 01F50041 		add	r1, r1, #32768
 1101 006e 01FB02F2 		mul	r2, r1, r2
 1102 0072 9212     		asrs	r2, r2, #10
 1103 0074 02F50012 		add	r2, r2, #2097152
ARM GAS  C:\Users\mame\AppData\Local\Temp\ccQcqcr0.s 			page 24


 204:BME280.c      **** 	((int32_t)bme280.calibration.dig_H2) + 8192) >> 14));
 1104              		.loc 1 204 0
 1105 0078 1D49     		ldr	r1, .L25
 1106 007a B1F92410 		ldrsh	r1, [r1, #36]
 203:BME280.c      **** 	((int32_t)16384)) >> 15) * (((((((var1 * ((int32_t)bme280.calibration.dig_H6)) >> 10) * (((var1 * 
 1107              		.loc 1 203 0
 1108 007e 01FB02F2 		mul	r2, r1, r2
 1109              		.loc 1 204 0
 1110 0082 02F50052 		add	r2, r2, #8192
 1111 0086 9213     		asrs	r2, r2, #14
 202:BME280.c      **** 	var1 = (((((adc_H << 14) - (((int32_t)bme280.calibration.dig_H4) << 20) - (((int32_t)bme280.calibr
 1112              		.loc 1 202 0
 1113 0088 02FB03F3 		mul	r3, r2, r3
 1114 008c 3B60     		str	r3, [r7]
 205:BME280.c      **** 	var1 = (var1 - (((((var1 >> 15) * (var1 >> 15)) >> 7) * ((int32_t)bme280.calibration.dig_H1)) >> 4
 1115              		.loc 1 205 0
 1116 008e 3B68     		ldr	r3, [r7]
 1117 0090 DB13     		asrs	r3, r3, #15
 1118 0092 3A68     		ldr	r2, [r7]
 1119 0094 D213     		asrs	r2, r2, #15
 1120 0096 02FB03F3 		mul	r3, r2, r3
 1121 009a DB11     		asrs	r3, r3, #7
 1122 009c 144A     		ldr	r2, .L25
 1123 009e 92F82220 		ldrb	r2, [r2, #34]	@ zero_extendqisi2
 1124 00a2 02FB03F3 		mul	r3, r2, r3
 1125 00a6 1B11     		asrs	r3, r3, #4
 1126 00a8 3A68     		ldr	r2, [r7]
 1127 00aa D31A     		subs	r3, r2, r3
 1128 00ac 3B60     		str	r3, [r7]
 206:BME280.c      **** 	var1 = (var1 < 0 ? 0 : var1);
 1129              		.loc 1 206 0
 1130 00ae 3B68     		ldr	r3, [r7]
 1131 00b0 23EAE373 		bic	r3, r3, r3, asr #31
 1132 00b4 3B60     		str	r3, [r7]
 207:BME280.c      **** 	var1 = (var1 > 419430400 ? 419430400 : var1);
 1133              		.loc 1 207 0
 1134 00b6 3B68     		ldr	r3, [r7]
 1135 00b8 B3F1C85F 		cmp	r3, #419430400
 1136 00bc A8BF     		it	ge
 1137 00be 4FF0C853 		movge	r3, #419430400
 1138 00c2 3B60     		str	r3, [r7]
 208:BME280.c      **** 
 209:BME280.c      ****     bme280.RH = (float) (var1>>12) / 1024.0;
 1139              		.loc 1 209 0
 1140 00c4 3B68     		ldr	r3, [r7]
 1141 00c6 1B13     		asrs	r3, r3, #12
 1142 00c8 1846     		mov	r0, r3
 1143 00ca FFF7FEFF 		bl	__aeabi_i2f
 1144 00ce 0346     		mov	r3, r0
 1145 00d0 4FF08941 		mov	r1, #1149239296
 1146 00d4 1846     		mov	r0, r3
 1147 00d6 FFF7FEFF 		bl	__aeabi_fdiv
 1148 00da 0346     		mov	r3, r0
 1149 00dc 1A46     		mov	r2, r3
 1150 00de 044B     		ldr	r3, .L25
 1151 00e0 DA63     		str	r2, [r3, #60]	@ float
 210:BME280.c      **** 	return bme280.RH;
ARM GAS  C:\Users\mame\AppData\Local\Temp\ccQcqcr0.s 			page 25


 1152              		.loc 1 210 0
 1153 00e2 034B     		ldr	r3, .L25
 1154 00e4 DB6B     		ldr	r3, [r3, #60]	@ float
 211:BME280.c      **** 
 212:BME280.c      **** }
 1155              		.loc 1 212 0
 1156 00e6 1846     		mov	r0, r3
 1157 00e8 0C37     		adds	r7, r7, #12
 1158              		.cfi_def_cfa_offset 12
 1159 00ea BD46     		mov	sp, r7
 1160              		.cfi_def_cfa_register 13
 1161              		@ sp needed
 1162 00ec 90BD     		pop	{r4, r7, pc}
 1163              	.L26:
 1164 00ee 00BF     		.align	2
 1165              	.L25:
 1166 00f0 00000000 		.word	bme280
 1167              		.cfi_endproc
 1168              	.LFE70:
 1169              		.size	BME280_readFloatHumidity, .-BME280_readFloatHumidity
 1170              		.section	.text.BME280_readTempC,"ax",%progbits
 1171              		.align	2
 1172              		.global	BME280_readTempC
 1173              		.thumb
 1174              		.thumb_func
 1175              		.type	BME280_readTempC, %function
 1176              	BME280_readTempC:
 1177              	.LFB71:
 213:BME280.c      **** 
 214:BME280.c      **** 
 215:BME280.c      **** 
 216:BME280.c      **** //****************************************************************************//
 217:BME280.c      **** //
 218:BME280.c      **** //  Temperature Section
 219:BME280.c      **** //
 220:BME280.c      **** //****************************************************************************//
 221:BME280.c      **** 
 222:BME280.c      **** float BME280_readTempC( void )
 223:BME280.c      **** {
 1178              		.loc 1 223 0
 1179              		.cfi_startproc
 1180              		@ args = 0, pretend = 0, frame = 32
 1181              		@ frame_needed = 1, uses_anonymous_args = 0
 1182 0000 90B5     		push	{r4, r7, lr}
 1183              		.cfi_def_cfa_offset 12
 1184              		.cfi_offset 4, -12
 1185              		.cfi_offset 7, -8
 1186              		.cfi_offset 14, -4
 1187 0002 89B0     		sub	sp, sp, #36
 1188              		.cfi_def_cfa_offset 48
 1189 0004 00AF     		add	r7, sp, #0
 1190              		.cfi_def_cfa_register 7
 224:BME280.c      **** 	// Returns temperature in DegC, resolution is 0.01 DegC. Output value of “5123” equals 51.23 D
 225:BME280.c      **** 	// t_fine carries fine temperature as global value
 226:BME280.c      **** 
 227:BME280.c      **** 	//get the reading (adc_T);
 228:BME280.c      **** 	int32_t adc_T = ((uint32_t)BME280_readRegister(BME280_TEMPERATURE_MSB_REG) << 12) | ((uint32_t)BME
ARM GAS  C:\Users\mame\AppData\Local\Temp\ccQcqcr0.s 			page 26


 1191              		.loc 1 228 0
 1192 0006 FA20     		movs	r0, #250
 1193 0008 FFF7FEFF 		bl	BME280_readRegister
 1194 000c 0346     		mov	r3, r0
 1195 000e 1C03     		lsls	r4, r3, #12
 1196 0010 FB20     		movs	r0, #251
 1197 0012 FFF7FEFF 		bl	BME280_readRegister
 1198 0016 0346     		mov	r3, r0
 1199 0018 1B01     		lsls	r3, r3, #4
 1200 001a 1C43     		orrs	r4, r4, r3
 1201 001c FC20     		movs	r0, #252
 1202 001e FFF7FEFF 		bl	BME280_readRegister
 1203 0022 0346     		mov	r3, r0
 1204 0024 1B09     		lsrs	r3, r3, #4
 1205 0026 DBB2     		uxtb	r3, r3
 1206 0028 03F00F03 		and	r3, r3, #15
 1207 002c 2343     		orrs	r3, r3, r4
 1208 002e FB61     		str	r3, [r7, #28]
 229:BME280.c      **** 
 230:BME280.c      **** 	//By datasheet, calibrate
 231:BME280.c      **** 	int64_t var1, var2;
 232:BME280.c      **** 
 233:BME280.c      **** 	var1 = ((((adc_T>>3) - ((int32_t)bme280.calibration.dig_T1<<1))) * ((int32_t)bme280.calibration.di
 1209              		.loc 1 233 0
 1210 0030 FB69     		ldr	r3, [r7, #28]
 1211 0032 DA10     		asrs	r2, r3, #3
 1212 0034 224B     		ldr	r3, .L29
 1213 0036 5B89     		ldrh	r3, [r3, #10]
 1214 0038 5B00     		lsls	r3, r3, #1
 1215 003a D31A     		subs	r3, r2, r3
 1216 003c 204A     		ldr	r2, .L29
 1217 003e B2F90C20 		ldrsh	r2, [r2, #12]
 1218 0042 02FB03F3 		mul	r3, r2, r3
 1219 0046 DB12     		asrs	r3, r3, #11
 1220 0048 4FEAE374 		asr	r4, r3, #31
 1221 004c C7E90434 		strd	r3, [r7, #16]
 234:BME280.c      **** 	var2 = (((((adc_T>>4) - ((int32_t)bme280.calibration.dig_T1)) * ((adc_T>>4) - ((int32_t)bme280.cal
 1222              		.loc 1 234 0
 1223 0050 FB69     		ldr	r3, [r7, #28]
 1224 0052 1B11     		asrs	r3, r3, #4
 1225 0054 1A4A     		ldr	r2, .L29
 1226 0056 5289     		ldrh	r2, [r2, #10]
 1227 0058 9B1A     		subs	r3, r3, r2
 1228 005a FA69     		ldr	r2, [r7, #28]
 1229 005c 1211     		asrs	r2, r2, #4
 1230 005e 1849     		ldr	r1, .L29
 1231 0060 4989     		ldrh	r1, [r1, #10]
 1232 0062 521A     		subs	r2, r2, r1
 1233 0064 02FB03F3 		mul	r3, r2, r3
 1234 0068 1B13     		asrs	r3, r3, #12
 1235 006a 154A     		ldr	r2, .L29
 1236 006c B2F90E20 		ldrsh	r2, [r2, #14]
 1237 0070 02FB03F3 		mul	r3, r2, r3
 1238 0074 9B13     		asrs	r3, r3, #14
 1239 0076 4FEAE374 		asr	r4, r3, #31
 1240 007a C7E90234 		strd	r3, [r7, #8]
 235:BME280.c      **** 	
ARM GAS  C:\Users\mame\AppData\Local\Temp\ccQcqcr0.s 			page 27


 236:BME280.c      ****     bme280.t_fine = var1 + var2;
 1241              		.loc 1 236 0
 1242 007e 3A69     		ldr	r2, [r7, #16]
 1243 0080 BB68     		ldr	r3, [r7, #8]
 1244 0082 1344     		add	r3, r3, r2
 1245 0084 1A46     		mov	r2, r3
 1246 0086 0E4B     		ldr	r3, .L29
 1247 0088 1A63     		str	r2, [r3, #48]
 237:BME280.c      **** 	float output = (bme280.t_fine * 5 + 128) >> 8;
 1248              		.loc 1 237 0
 1249 008a 0D4B     		ldr	r3, .L29
 1250 008c 1A6B     		ldr	r2, [r3, #48]
 1251 008e 1346     		mov	r3, r2
 1252 0090 9B00     		lsls	r3, r3, #2
 1253 0092 1344     		add	r3, r3, r2
 1254 0094 8033     		adds	r3, r3, #128
 1255 0096 1B12     		asrs	r3, r3, #8
 1256 0098 1846     		mov	r0, r3
 1257 009a FFF7FEFF 		bl	__aeabi_i2f
 1258 009e 0346     		mov	r3, r0
 1259 00a0 7B60     		str	r3, [r7, #4]	@ float
 238:BME280.c      **** 
 239:BME280.c      **** 	output = output / 100;
 1260              		.loc 1 239 0
 1261 00a2 0849     		ldr	r1, .L29+4
 1262 00a4 7868     		ldr	r0, [r7, #4]	@ float
 1263 00a6 FFF7FEFF 		bl	__aeabi_fdiv
 1264 00aa 0346     		mov	r3, r0
 1265 00ac 7B60     		str	r3, [r7, #4]	@ float
 240:BME280.c      **** 	
 241:BME280.c      ****     bme280.temp_C = output;
 1266              		.loc 1 241 0
 1267 00ae 044A     		ldr	r2, .L29
 1268 00b0 7B68     		ldr	r3, [r7, #4]	@ float
 1269 00b2 5363     		str	r3, [r2, #52]	@ float
 242:BME280.c      **** 	return bme280.temp_C;
 1270              		.loc 1 242 0
 1271 00b4 024B     		ldr	r3, .L29
 1272 00b6 5B6B     		ldr	r3, [r3, #52]	@ float
 243:BME280.c      **** }
 1273              		.loc 1 243 0
 1274 00b8 1846     		mov	r0, r3
 1275 00ba 2437     		adds	r7, r7, #36
 1276              		.cfi_def_cfa_offset 12
 1277 00bc BD46     		mov	sp, r7
 1278              		.cfi_def_cfa_register 13
 1279              		@ sp needed
 1280 00be 90BD     		pop	{r4, r7, pc}
 1281              	.L30:
 1282              		.align	2
 1283              	.L29:
 1284 00c0 00000000 		.word	bme280
 1285 00c4 0000C842 		.word	1120403456
 1286              		.cfi_endproc
 1287              	.LFE71:
 1288              		.size	BME280_readTempC, .-BME280_readTempC
 1289              		.global	__aeabi_fmul
ARM GAS  C:\Users\mame\AppData\Local\Temp\ccQcqcr0.s 			page 28


 1290              		.global	__aeabi_fadd
 1291              		.section	.text.BME280_readTempF,"ax",%progbits
 1292              		.align	2
 1293              		.global	BME280_readTempF
 1294              		.thumb
 1295              		.thumb_func
 1296              		.type	BME280_readTempF, %function
 1297              	BME280_readTempF:
 1298              	.LFB72:
 244:BME280.c      **** 
 245:BME280.c      **** float BME280_readTempF( void )
 246:BME280.c      **** {
 1299              		.loc 1 246 0
 1300              		.cfi_startproc
 1301              		@ args = 0, pretend = 0, frame = 8
 1302              		@ frame_needed = 1, uses_anonymous_args = 0
 1303 0000 80B5     		push	{r7, lr}
 1304              		.cfi_def_cfa_offset 8
 1305              		.cfi_offset 7, -8
 1306              		.cfi_offset 14, -4
 1307 0002 82B0     		sub	sp, sp, #8
 1308              		.cfi_def_cfa_offset 16
 1309 0004 00AF     		add	r7, sp, #0
 1310              		.cfi_def_cfa_register 7
 247:BME280.c      **** 	float output = BME280_readTempC();
 1311              		.loc 1 247 0
 1312 0006 FFF7FEFF 		bl	BME280_readTempC
 1313 000a 7860     		str	r0, [r7, #4]	@ float
 248:BME280.c      **** 	output = (output * 9) / 5 + 32;
 1314              		.loc 1 248 0
 1315 000c 0A49     		ldr	r1, .L33
 1316 000e 7868     		ldr	r0, [r7, #4]	@ float
 1317 0010 FFF7FEFF 		bl	__aeabi_fmul
 1318 0014 0346     		mov	r3, r0
 1319 0016 0949     		ldr	r1, .L33+4
 1320 0018 1846     		mov	r0, r3
 1321 001a FFF7FEFF 		bl	__aeabi_fdiv
 1322 001e 0346     		mov	r3, r0
 1323 0020 4FF08441 		mov	r1, #1107296256
 1324 0024 1846     		mov	r0, r3
 1325 0026 FFF7FEFF 		bl	__aeabi_fadd
 1326 002a 0346     		mov	r3, r0
 1327 002c 7B60     		str	r3, [r7, #4]	@ float
 249:BME280.c      **** 
 250:BME280.c      **** 	return output;
 1328              		.loc 1 250 0
 1329 002e 7B68     		ldr	r3, [r7, #4]	@ float
 251:BME280.c      **** }
 1330              		.loc 1 251 0
 1331 0030 1846     		mov	r0, r3
 1332 0032 0837     		adds	r7, r7, #8
 1333              		.cfi_def_cfa_offset 8
 1334 0034 BD46     		mov	sp, r7
 1335              		.cfi_def_cfa_register 13
 1336              		@ sp needed
 1337 0036 80BD     		pop	{r7, pc}
 1338              	.L34:
ARM GAS  C:\Users\mame\AppData\Local\Temp\ccQcqcr0.s 			page 29


 1339              		.align	2
 1340              	.L33:
 1341 0038 00001041 		.word	1091567616
 1342 003c 0000A040 		.word	1084227584
 1343              		.cfi_endproc
 1344              	.LFE72:
 1345              		.size	BME280_readTempF, .-BME280_readTempF
 1346              		.section	.text.BME280_readRegister,"ax",%progbits
 1347              		.align	2
 1348              		.global	BME280_readRegister
 1349              		.thumb
 1350              		.thumb_func
 1351              		.type	BME280_readRegister, %function
 1352              	BME280_readRegister:
 1353              	.LFB73:
 252:BME280.c      **** 
 253:BME280.c      **** //****************************************************************************//
 254:BME280.c      **** //
 255:BME280.c      **** //  Utility
 256:BME280.c      **** //
 257:BME280.c      **** //****************************************************************************//
 258:BME280.c      **** uint8_t BME280_readRegister(uint8_t offset)
 259:BME280.c      **** {
 1354              		.loc 1 259 0
 1355              		.cfi_startproc
 1356              		@ args = 0, pretend = 0, frame = 16
 1357              		@ frame_needed = 1, uses_anonymous_args = 0
 1358 0000 80B5     		push	{r7, lr}
 1359              		.cfi_def_cfa_offset 8
 1360              		.cfi_offset 7, -8
 1361              		.cfi_offset 14, -4
 1362 0002 84B0     		sub	sp, sp, #16
 1363              		.cfi_def_cfa_offset 24
 1364 0004 00AF     		add	r7, sp, #0
 1365              		.cfi_def_cfa_register 7
 1366 0006 0346     		mov	r3, r0
 1367 0008 FB71     		strb	r3, [r7, #7]
 260:BME280.c      **** 	//Return value
 261:BME280.c      **** 	uint8_t result;
 262:BME280.c      **** 	uint8_t numBytes = 1;
 1368              		.loc 1 262 0
 1369 000a 0123     		movs	r3, #1
 1370 000c 7B73     		strb	r3, [r7, #13]
 263:BME280.c      ****     
 264:BME280.c      ****     uint16  iter;
 265:BME280.c      ****     
 266:BME280.c      **** 	switch (bme280.settings.commInterface) {
 1371              		.loc 1 266 0
 1372 000e 244B     		ldr	r3, .L52
 1373 0010 1B78     		ldrb	r3, [r3]	@ zero_extendqisi2
 1374 0012 002B     		cmp	r3, #0
 1375 0014 02D0     		beq	.L37
 1376 0016 012B     		cmp	r3, #1
 1377 0018 3CD0     		beq	.L49
 267:BME280.c      **** 
 268:BME280.c      ****     	case BME280_I2C_MODE:
 269:BME280.c      ****             I2C_Wakeup();
ARM GAS  C:\Users\mame\AppData\Local\Temp\ccQcqcr0.s 			page 30


 270:BME280.c      ****             I2C_MasterClearStatus(); /* Clear any previous status */
 271:BME280.c      ****             
 272:BME280.c      ****             // Write to register
 273:BME280.c      ****             I2C_MasterWriteBuf(bme280.settings.I2CAddress, (uint8 *) &offset, 1, I2C_MODE_COMPLETE_
 274:BME280.c      ****             for(iter = 0; iter < BME280_MAX_ITER; iter++)
 275:BME280.c      ****             {
 276:BME280.c      ****                 if(0u != (I2C_MasterStatus() & I2C_MSTAT_WR_CMPLT))
 277:BME280.c      ****                 {
 278:BME280.c      ****                     /* Transfer complete. Check Master status to make sure that transfer
 279:BME280.c      ****                     completed without errors. */
 280:BME280.c      ****                     break;
 281:BME280.c      ****                 }
 282:BME280.c      ****             }        
 283:BME280.c      ****             
 284:BME280.c      ****             // Read Buffer        
 285:BME280.c      ****             I2C_MasterReadBuf(bme280.settings.I2CAddress, &result, numBytes, I2C_MODE_COMPLETE_XFER
 286:BME280.c      ****             
 287:BME280.c      ****             for(iter = 0; iter < BME280_MAX_ITER; iter++){
 288:BME280.c      ****                 if(0u != (I2C_MasterStatus() & I2C_MSTAT_RD_CMPLT))
 289:BME280.c      ****                 {
 290:BME280.c      ****                     /* Transfer complete. Check Master status to make sure that transfer
 291:BME280.c      ****                     completed without errors. */
 292:BME280.c      ****                     break;
 293:BME280.c      ****                 }
 294:BME280.c      ****                 
 295:BME280.c      ****             }
 296:BME280.c      ****             I2C_Sleep();
 297:BME280.c      **** 
 298:BME280.c      ****     		break;
 299:BME280.c      **** 
 300:BME280.c      ****     	case BME280_SPI_MODE:
 301:BME280.c      ****     		// TODO
 302:BME280.c      ****     		break;
 303:BME280.c      **** 
 304:BME280.c      ****     	default:
 305:BME280.c      ****     		break;
 1378              		.loc 1 305 0
 1379 001a 3CE0     		b	.L47
 1380              	.L37:
 269:BME280.c      ****             I2C_MasterClearStatus(); /* Clear any previous status */
 1381              		.loc 1 269 0
 1382 001c FFF7FEFF 		bl	I2C_Wakeup
 270:BME280.c      ****             
 1383              		.loc 1 270 0
 1384 0020 FFF7FEFF 		bl	I2C_MasterClearStatus
 273:BME280.c      ****             for(iter = 0; iter < BME280_MAX_ITER; iter++)
 1385              		.loc 1 273 0
 1386 0024 1E4B     		ldr	r3, .L52
 1387 0026 5878     		ldrb	r0, [r3, #1]	@ zero_extendqisi2
 1388 0028 F91D     		adds	r1, r7, #7
 1389 002a 0023     		movs	r3, #0
 1390 002c 0122     		movs	r2, #1
 1391 002e FFF7FEFF 		bl	I2C_MasterWriteBuf
 274:BME280.c      ****             {
 1392              		.loc 1 274 0
 1393 0032 0023     		movs	r3, #0
 1394 0034 FB81     		strh	r3, [r7, #14]	@ movhi
ARM GAS  C:\Users\mame\AppData\Local\Temp\ccQcqcr0.s 			page 31


 1395 0036 09E0     		b	.L39
 1396              	.L42:
 276:BME280.c      ****                 {
 1397              		.loc 1 276 0
 1398 0038 FFF7FEFF 		bl	I2C_MasterStatus
 1399 003c 0346     		mov	r3, r0
 1400 003e 03F00203 		and	r3, r3, #2
 1401 0042 002B     		cmp	r3, #0
 1402 0044 07D1     		bne	.L50
 274:BME280.c      ****             {
 1403              		.loc 1 274 0 discriminator 2
 1404 0046 FB89     		ldrh	r3, [r7, #14]
 1405 0048 0133     		adds	r3, r3, #1
 1406 004a FB81     		strh	r3, [r7, #14]	@ movhi
 1407              	.L39:
 274:BME280.c      ****             {
 1408              		.loc 1 274 0 is_stmt 0 discriminator 1
 1409 004c FB89     		ldrh	r3, [r7, #14]
 1410 004e B3F5967F 		cmp	r3, #300
 1411 0052 F1D3     		bcc	.L42
 1412 0054 00E0     		b	.L41
 1413              	.L50:
 280:BME280.c      ****                 }
 1414              		.loc 1 280 0 is_stmt 1
 1415 0056 00BF     		nop
 1416              	.L41:
 285:BME280.c      ****             
 1417              		.loc 1 285 0
 1418 0058 114B     		ldr	r3, .L52
 1419 005a 5878     		ldrb	r0, [r3, #1]	@ zero_extendqisi2
 1420 005c 7A7B     		ldrb	r2, [r7, #13]	@ zero_extendqisi2
 1421 005e 07F10C01 		add	r1, r7, #12
 1422 0062 0023     		movs	r3, #0
 1423 0064 FFF7FEFF 		bl	I2C_MasterReadBuf
 287:BME280.c      ****                 if(0u != (I2C_MasterStatus() & I2C_MSTAT_RD_CMPLT))
 1424              		.loc 1 287 0
 1425 0068 0023     		movs	r3, #0
 1426 006a FB81     		strh	r3, [r7, #14]	@ movhi
 1427 006c 09E0     		b	.L43
 1428              	.L46:
 288:BME280.c      ****                 {
 1429              		.loc 1 288 0
 1430 006e FFF7FEFF 		bl	I2C_MasterStatus
 1431 0072 0346     		mov	r3, r0
 1432 0074 03F00103 		and	r3, r3, #1
 1433 0078 002B     		cmp	r3, #0
 1434 007a 07D1     		bne	.L51
 287:BME280.c      ****                 if(0u != (I2C_MasterStatus() & I2C_MSTAT_RD_CMPLT))
 1435              		.loc 1 287 0 discriminator 2
 1436 007c FB89     		ldrh	r3, [r7, #14]
 1437 007e 0133     		adds	r3, r3, #1
 1438 0080 FB81     		strh	r3, [r7, #14]	@ movhi
 1439              	.L43:
 287:BME280.c      ****                 if(0u != (I2C_MasterStatus() & I2C_MSTAT_RD_CMPLT))
 1440              		.loc 1 287 0 is_stmt 0 discriminator 1
 1441 0082 FB89     		ldrh	r3, [r7, #14]
 1442 0084 B3F5967F 		cmp	r3, #300
ARM GAS  C:\Users\mame\AppData\Local\Temp\ccQcqcr0.s 			page 32


 1443 0088 F1D3     		bcc	.L46
 1444 008a 00E0     		b	.L45
 1445              	.L51:
 292:BME280.c      ****                 }
 1446              		.loc 1 292 0 is_stmt 1
 1447 008c 00BF     		nop
 1448              	.L45:
 296:BME280.c      **** 
 1449              		.loc 1 296 0
 1450 008e FFF7FEFF 		bl	I2C_Sleep
 298:BME280.c      **** 
 1451              		.loc 1 298 0
 1452 0092 00E0     		b	.L47
 1453              	.L49:
 302:BME280.c      **** 
 1454              		.loc 1 302 0
 1455 0094 00BF     		nop
 1456              	.L47:
 306:BME280.c      **** 	}
 307:BME280.c      **** 	return result;
 1457              		.loc 1 307 0
 1458 0096 3B7B     		ldrb	r3, [r7, #12]	@ zero_extendqisi2
 308:BME280.c      **** }
 1459              		.loc 1 308 0
 1460 0098 1846     		mov	r0, r3
 1461 009a 1037     		adds	r7, r7, #16
 1462              		.cfi_def_cfa_offset 8
 1463 009c BD46     		mov	sp, r7
 1464              		.cfi_def_cfa_register 13
 1465              		@ sp needed
 1466 009e 80BD     		pop	{r7, pc}
 1467              	.L53:
 1468              		.align	2
 1469              	.L52:
 1470 00a0 00000000 		.word	bme280
 1471              		.cfi_endproc
 1472              	.LFE73:
 1473              		.size	BME280_readRegister, .-BME280_readRegister
 1474              		.section	.text.BME280_writeRegister,"ax",%progbits
 1475              		.align	2
 1476              		.global	BME280_writeRegister
 1477              		.thumb
 1478              		.thumb_func
 1479              		.type	BME280_writeRegister, %function
 1480              	BME280_writeRegister:
 1481              	.LFB74:
 309:BME280.c      **** 
 310:BME280.c      **** 
 311:BME280.c      **** void BME280_writeRegister(uint8_t offset, uint8_t data)
 312:BME280.c      **** {
 1482              		.loc 1 312 0
 1483              		.cfi_startproc
 1484              		@ args = 0, pretend = 0, frame = 16
 1485              		@ frame_needed = 1, uses_anonymous_args = 0
 1486 0000 80B5     		push	{r7, lr}
 1487              		.cfi_def_cfa_offset 8
 1488              		.cfi_offset 7, -8
ARM GAS  C:\Users\mame\AppData\Local\Temp\ccQcqcr0.s 			page 33


 1489              		.cfi_offset 14, -4
 1490 0002 84B0     		sub	sp, sp, #16
 1491              		.cfi_def_cfa_offset 24
 1492 0004 00AF     		add	r7, sp, #0
 1493              		.cfi_def_cfa_register 7
 1494 0006 0346     		mov	r3, r0
 1495 0008 0A46     		mov	r2, r1
 1496 000a FB71     		strb	r3, [r7, #7]
 1497 000c 1346     		mov	r3, r2
 1498 000e BB71     		strb	r3, [r7, #6]
 313:BME280.c      ****     uint8 packet[] = {offset, data};
 1499              		.loc 1 313 0
 1500 0010 FB79     		ldrb	r3, [r7, #7]
 1501 0012 3B73     		strb	r3, [r7, #12]
 1502 0014 BB79     		ldrb	r3, [r7, #6]
 1503 0016 7B73     		strb	r3, [r7, #13]
 314:BME280.c      ****     uint16 iter;
 315:BME280.c      ****     
 316:BME280.c      **** 	switch (bme280.settings.commInterface)
 1504              		.loc 1 316 0
 1505 0018 164B     		ldr	r3, .L65
 1506 001a 1B78     		ldrb	r3, [r3]	@ zero_extendqisi2
 1507 001c 002B     		cmp	r3, #0
 1508 001e 02D0     		beq	.L56
 1509 0020 012B     		cmp	r3, #1
 1510 0022 22D0     		beq	.L63
 317:BME280.c      **** 	{
 318:BME280.c      ****     	case BME280_I2C_MODE:
 319:BME280.c      ****     		//Write the byte
 320:BME280.c      ****             I2C_Wakeup();
 321:BME280.c      ****             I2C_MasterClearStatus(); /* Clear any previous status */
 322:BME280.c      ****             
 323:BME280.c      ****             // Write to register
 324:BME280.c      ****             I2C_MasterWriteBuf(bme280.settings.I2CAddress, (uint8 *) &packet, 2, I2C_MODE_COMPLETE_
 325:BME280.c      ****             for(iter = 0; iter < BME280_MAX_ITER; iter++)
 326:BME280.c      ****             {
 327:BME280.c      ****                 if(0u != (I2C_MasterStatus() & I2C_MSTAT_WR_CMPLT))
 328:BME280.c      ****                 {
 329:BME280.c      ****                     // Transfer complete. Check Master status to make sure that transfer
 330:BME280.c      ****                     //completed without errors. 
 331:BME280.c      ****                     break;               
 332:BME280.c      ****                 }
 333:BME280.c      ****             }          
 334:BME280.c      ****             
 335:BME280.c      ****             I2C_Sleep();        
 336:BME280.c      **** 
 337:BME280.c      ****     		break;
 338:BME280.c      **** 
 339:BME280.c      ****     	case BME280_SPI_MODE:
 340:BME280.c      ****     		//TODO
 341:BME280.c      ****     		break;
 342:BME280.c      **** 
 343:BME280.c      ****     	default:
 344:BME280.c      ****     		break;
 1511              		.loc 1 344 0
 1512 0024 22E0     		b	.L62
 1513              	.L56:
ARM GAS  C:\Users\mame\AppData\Local\Temp\ccQcqcr0.s 			page 34


 320:BME280.c      ****             I2C_MasterClearStatus(); /* Clear any previous status */
 1514              		.loc 1 320 0
 1515 0026 FFF7FEFF 		bl	I2C_Wakeup
 321:BME280.c      ****             
 1516              		.loc 1 321 0
 1517 002a FFF7FEFF 		bl	I2C_MasterClearStatus
 324:BME280.c      ****             for(iter = 0; iter < BME280_MAX_ITER; iter++)
 1518              		.loc 1 324 0
 1519 002e 114B     		ldr	r3, .L65
 1520 0030 5878     		ldrb	r0, [r3, #1]	@ zero_extendqisi2
 1521 0032 07F10C01 		add	r1, r7, #12
 1522 0036 0023     		movs	r3, #0
 1523 0038 0222     		movs	r2, #2
 1524 003a FFF7FEFF 		bl	I2C_MasterWriteBuf
 325:BME280.c      ****             {
 1525              		.loc 1 325 0
 1526 003e 0023     		movs	r3, #0
 1527 0040 FB81     		strh	r3, [r7, #14]	@ movhi
 1528 0042 09E0     		b	.L58
 1529              	.L61:
 327:BME280.c      ****                 {
 1530              		.loc 1 327 0
 1531 0044 FFF7FEFF 		bl	I2C_MasterStatus
 1532 0048 0346     		mov	r3, r0
 1533 004a 03F00203 		and	r3, r3, #2
 1534 004e 002B     		cmp	r3, #0
 1535 0050 07D1     		bne	.L64
 325:BME280.c      ****             {
 1536              		.loc 1 325 0 discriminator 2
 1537 0052 FB89     		ldrh	r3, [r7, #14]
 1538 0054 0133     		adds	r3, r3, #1
 1539 0056 FB81     		strh	r3, [r7, #14]	@ movhi
 1540              	.L58:
 325:BME280.c      ****             {
 1541              		.loc 1 325 0 is_stmt 0 discriminator 1
 1542 0058 FB89     		ldrh	r3, [r7, #14]
 1543 005a B3F5967F 		cmp	r3, #300
 1544 005e F1D3     		bcc	.L61
 1545 0060 00E0     		b	.L60
 1546              	.L64:
 331:BME280.c      ****                 }
 1547              		.loc 1 331 0 is_stmt 1
 1548 0062 00BF     		nop
 1549              	.L60:
 335:BME280.c      **** 
 1550              		.loc 1 335 0
 1551 0064 FFF7FEFF 		bl	I2C_Sleep
 337:BME280.c      **** 
 1552              		.loc 1 337 0
 1553 0068 00E0     		b	.L62
 1554              	.L63:
 341:BME280.c      **** 
 1555              		.loc 1 341 0
 1556 006a 00BF     		nop
 1557              	.L62:
 345:BME280.c      **** 	}
 346:BME280.c      **** }
ARM GAS  C:\Users\mame\AppData\Local\Temp\ccQcqcr0.s 			page 35


 1558              		.loc 1 346 0 discriminator 1
 1559 006c 00BF     		nop
 1560 006e 1037     		adds	r7, r7, #16
 1561              		.cfi_def_cfa_offset 8
 1562 0070 BD46     		mov	sp, r7
 1563              		.cfi_def_cfa_register 13
 1564              		@ sp needed
 1565 0072 80BD     		pop	{r7, pc}
 1566              	.L66:
 1567              		.align	2
 1568              	.L65:
 1569 0074 00000000 		.word	bme280
 1570              		.cfi_endproc
 1571              	.LFE74:
 1572              		.size	BME280_writeRegister, .-BME280_writeRegister
 1573              		.text
 1574              	.Letext0:
 1575              		.file 2 "c:\\program files\\cypress\\psoc creator\\4.1\\psoc creator\\import\\gnu\\arm\\5.4.1\\arm
 1576              		.file 3 "c:\\program files\\cypress\\psoc creator\\4.1\\psoc creator\\import\\gnu\\arm\\5.4.1\\arm
 1577              		.file 4 "Generated_Source\\PSoC5/cytypes.h"
 1578              		.file 5 "BME280.h"
 1579              		.file 6 "Generated_Source\\PSoC5/core_cm3.h"